
CH32V307VCT6.elf:     file format elf32-littleriscv
CH32V307VCT6.elf
architecture: riscv:rv32, flags 0x00000112:
EXEC_P, HAS_SYMS, D_PAGED
start address 0x00000000

Program Header:
    LOAD off    0x00001000 vaddr 0x00000000 paddr 0x00000000 align 2**12
         filesz 0x00001dc0 memsz 0x00001dc0 flags r-x
    LOAD off    0x00003000 vaddr 0x20000000 paddr 0x00001dc0 align 2**12
         filesz 0x00000028 memsz 0x00000098 flags rw-
    LOAD off    0x00003800 vaddr 0x20007800 paddr 0x20007800 align 2**12
         filesz 0x00000000 memsz 0x00000800 flags rw-

Sections:
Idx Name          Size      VMA       LMA       File off  Algn
  0 .init         00000004  00000000  00000000  00001000  2**1
                  CONTENTS, ALLOC, LOAD, READONLY, CODE
  1 .vector       000001bc  00000004  00000004  00001004  2**1
                  CONTENTS, ALLOC, LOAD, READONLY, CODE
  2 .text         00001c00  000001c0  000001c0  000011c0  2**2
                  CONTENTS, ALLOC, LOAD, READONLY, CODE
  3 .fini         00000000  00001dc0  00001dc0  00003028  2**0
                  CONTENTS, ALLOC, LOAD, CODE
  4 .dalign       00000000  20000000  20000000  00003028  2**0
                  CONTENTS
  5 .dlalign      00000000  00001dc0  00001dc0  00003028  2**0
                  CONTENTS
  6 .data         00000028  20000000  00001dc0  00003000  2**2
                  CONTENTS, ALLOC, LOAD, DATA
  7 .bss          00000070  20000028  00001de8  00003028  2**2
                  ALLOC
  8 .stack        00000800  20007800  20007800  00003800  2**0
                  ALLOC
  9 .debug_info   0000f7f8  00000000  00000000  00003028  2**0
                  CONTENTS, READONLY, DEBUGGING
 10 .debug_abbrev 00002b16  00000000  00000000  00012820  2**0
                  CONTENTS, READONLY, DEBUGGING
 11 .debug_aranges 00000678  00000000  00000000  00015338  2**3
                  CONTENTS, READONLY, DEBUGGING
 12 .debug_ranges 00000640  00000000  00000000  000159b0  2**3
                  CONTENTS, READONLY, DEBUGGING
 13 .debug_line   00008757  00000000  00000000  00015ff0  2**0
                  CONTENTS, READONLY, DEBUGGING
 14 .debug_str    00002291  00000000  00000000  0001e747  2**0
                  CONTENTS, READONLY, DEBUGGING
 15 .comment      00000033  00000000  00000000  000209d8  2**0
                  CONTENTS, READONLY
 16 .debug_frame  00000d60  00000000  00000000  00020a0c  2**2
                  CONTENTS, READONLY, DEBUGGING
 17 .debug_loc    0000267f  00000000  00000000  0002176c  2**0
                  CONTENTS, READONLY, DEBUGGING
SYMBOL TABLE:
00000000 l    d  .init	00000000 .init
00000004 l    d  .vector	00000000 .vector
000001c0 l    d  .text	00000000 .text
00001dc0 l    d  .fini	00000000 .fini
20000000 l    d  .dalign	00000000 .dalign
00001dc0 l    d  .dlalign	00000000 .dlalign
20000000 l    d  .data	00000000 .data
20000028 l    d  .bss	00000000 .bss
20007800 l    d  .stack	00000000 .stack
00000000 l    d  .debug_info	00000000 .debug_info
00000000 l    d  .debug_abbrev	00000000 .debug_abbrev
00000000 l    d  .debug_aranges	00000000 .debug_aranges
00000000 l    d  .debug_ranges	00000000 .debug_ranges
00000000 l    d  .debug_line	00000000 .debug_line
00000000 l    d  .debug_str	00000000 .debug_str
00000000 l    d  .comment	00000000 .comment
00000000 l    d  .debug_frame	00000000 .debug_frame
00000000 l    d  .debug_loc	00000000 .debug_loc
00000000 l    df *ABS*	00000000 ./Startup/startup_ch32v30x_D8C.o
00000004 l       .vector	00000000 _vector_base
00000000 l    df *ABS*	00000000 ch32v30x_it.c
00000000 l    df *ABS*	00000000 main.c
00000000 l    df *ABS*	00000000 system_ch32v30x.c
00000000 l    df *ABS*	00000000 ch32v30x_gpio.c
00000000 l    df *ABS*	00000000 ch32v30x_misc.c
00000000 l    df *ABS*	00000000 ch32v30x_rcc.c
20000010 l     O .data	00000010 APBAHBPrescTable
20000024 l     O .data	00000004 ADCPrescTable
00000000 l    df *ABS*	00000000 ch32v30x_usart.c
00000000 l    df *ABS*	00000000 oled.c
00000000 l    df *ABS*	00000000 Driver_I2C2.c
00000000 l    df *ABS*	00000000 Driver_Key.c
00000000 l    df *ABS*	00000000 Driver_LED.c
00000000 l    df *ABS*	00000000 Driver_TIM1.c
00000000 l    df *ABS*	00000000 Driver_TIM6.c
00000000 l    df *ABS*	00000000 Driver_USART.c
00000000 l    df *ABS*	00000000 debug.c
2000002e l     O .bss	00000002 p_ms
20000030 l     O .bss	00000001 p_us
00000000 l    df *ABS*	00000000 word.c
0000047e  w      .text	00000000 EXTI2_IRQHandler
0000047e  w      .text	00000000 TIM8_TRG_COM_IRQHandler
0000047e  w      .text	00000000 TIM8_CC_IRQHandler
0000047e  w      .text	00000000 UART8_IRQHandler
20000820 g       .data	00000000 __global_pointer$
000001c8 g     F .text	00000028 .hidden __riscv_save_8
00000eaa g     F .text	00000078 Driver_I2C_SendByte
0000047e  w      .text	00000000 TIM1_CC_IRQHandler
00000d70 g     F .text	00000050 OLED_Menu_Display
00000222 g     F .text	00000010 HardFault_Handler
00000214 g     F .text	0000000c .hidden __riscv_restore_3
00000fc8 g     F .text	00000014 TIM6_IRQHandler
0000047e  w      .text	00000000 SysTick_Handler
0000047e  w      .text	00000000 PVD_IRQHandler
0000047e  w      .text	00000000 SDIO_IRQHandler
0000047e  w      .text	00000000 TIM9_BRK_IRQHandler
00000200 g     F .text	00000020 .hidden __riscv_restore_10
0000047e  w      .text	00000000 DMA2_Channel8_IRQHandler
00000220 g     F .text	00000002 NMI_Handler
0000047e  w      .text	00000000 CAN2_RX1_IRQHandler
0000047e  w      .text	00000000 EXTI3_IRQHandler
000001c8 g     F .text	00000028 .hidden __riscv_save_11
0000047e  w      .text	00000000 USBHS_IRQHandler
0000047e  w      .text	00000000 DMA2_Channel9_IRQHandler
0000047e  w      .text	00000000 TIM10_CC_IRQHandler
20000028 g       .bss	00000000 _sbss
00000800 g       *ABS*	00000000 __stack_size
000010b0 g     F .text	0000005a USART_Printf_Init
0000047e  w      .text	00000000 USBFS_IRQHandler
00000214 g     F .text	0000000c .hidden __riscv_restore_2
00000f64 g     F .text	00000010 Drviver_LED_Off
00000e54 g     F .text	00000056 Driver_I2C2_Ack
000008b8 g     F .text	000000ee OLED_Init
0000047e  w      .text	00000000 EXTI0_IRQHandler
0000047e  w      .text	00000000 I2C2_EV_IRQHandler
0000047e  w      .text	00000000 TIM10_TRG_COM_IRQHandler
20000020 g     O .data	00000004 SystemCoreClock
00000004 g       .init	00000000 _einit
00000746 g     F .text	0000001e RCC_APB2PeriphClockCmd
000001c0 g     F .text	00000030 .hidden __riscv_save_12
0000047e  w      .text	00000000 CAN2_SCE_IRQHandler
0000047e  w      .text	00000000 ADC1_2_IRQHandler
0000050a g     F .text	000000c0 GPIO_Init
20000034 g     O .bss	00000064 buff
0000047e  w      .text	00000000 Break_Point_Handler
00000200 g     F .text	00000020 .hidden __riscv_restore_11
20000028 g     O .bss	00000004 NVIC_Priority_Group
0000047e  w      .text	00000000 SPI1_IRQHandler
000007f0 g     F .text	00000016 USART_Cmd
00001740 g     O .text	00000680 ChineseFont_16_16
000001f0 g     F .text	0000000c .hidden __riscv_save_1
0000047e  w      .text	00000000 TAMPER_IRQHandler
00000214 g     F .text	0000000c .hidden __riscv_restore_0
000001d6 g     F .text	0000001a .hidden __riscv_save_7
0000047e  w      .text	00000000 CAN2_RX0_IRQHandler
0000047e  w      .text	00000000 TIM8_UP_IRQHandler
0000047e  w      .text	00000000 Ecall_M_Mode_Handler
20007800 g       .stack	00000000 _heap_end
00000f90 g     F .text	00000018 Driver_TIM1_Stop
00001044 g     F .text	00000036 Delay_Us
0000020a g     F .text	00000016 .hidden __riscv_restore_5
0000047e  w      .text	00000000 DMA2_Channel2_IRQHandler
0000047e  w      .text	00000000 DMA1_Channel4_IRQHandler
0000047e  w      .text	00000000 TIM9_UP_IRQHandler
0000020a g     F .text	00000016 .hidden __riscv_restore_6
0000047e  w      .text	00000000 USART3_IRQHandler
0000047e  w      .text	00000000 RTC_IRQHandler
20000098 g       .bss	00000000 _ebss
0000047e  w      .text	00000000 DMA1_Channel7_IRQHandler
00000dc0 g     F .text	00000030 Driver_I2C2_Init
0000047e  w      .text	00000000 CAN1_RX1_IRQHandler
0000101a g     F .text	0000002a Delay_Init
0000083c g     F .text	0000001c OLED_Display_On
0000047e  w      .text	00000000 DVP_IRQHandler
0000047e  w      .text	00000000 UART5_IRQHandler
0000047e  w      .text	00000000 TIM4_IRQHandler
000001c8 g     F .text	00000028 .hidden __riscv_save_9
00000890 g     F .text	00000028 OLED_SetCursorAddrese
0000047e  w      .text	00000000 DMA2_Channel1_IRQHandler
000001d6 g     F .text	0000001a .hidden __riscv_save_4
0000047e  w      .text	00000000 I2C1_EV_IRQHandler
000005d0 g     F .text	00000176 RCC_GetClocksFreq
0000047e  w      .text	00000000 DMA1_Channel6_IRQHandler
0000047e  w      .text	00000000 UART4_IRQHandler
00000f50 g     F .text	00000014 Drviver_LED_On
0000047e  w      .text	00000000 DMA2_Channel4_IRQHandler
00000764 g     F .text	0000008c USART_Init
0000047e  w      .text	00000000 TIM3_IRQHandler
0000047e  w      .text	00000000 RCC_IRQHandler
000001f0 g     F .text	0000000c .hidden __riscv_save_3
0000047e  w      .text	00000000 TIM1_TRG_COM_IRQHandler
0000047e  w      .text	00000000 DMA1_Channel1_IRQHandler
00000000 g       .init	00000000 _start
0000047e  w      .text	00000000 DMA2_Channel7_IRQHandler
20000000 g     O .data	00000010 AHBPrescTable
00000f22 g     F .text	0000002e EXTI15_10_IRQHandler
0000047e  w      .text	00000000 TIM7_IRQHandler
0000047e  w      .text	00000000 CAN2_TX_IRQHandler
20000000 g       .dalign	00000000 _data_vma
0000047e  w      .text	00000000 TIM5_IRQHandler
0000047e  w      .text	00000000 EXTI9_5_IRQHandler
00000f74 g     F .text	0000001c Drviver_LED_Toggle
000001c8 g     F .text	00000028 .hidden __riscv_save_10
0000047e  w      .text	00000000 ETH_WKUP_IRQHandler
0000020a g     F .text	00000016 .hidden __riscv_restore_4
00000200 g     F .text	00000020 .hidden __riscv_restore_8
000001d6 g     F .text	0000001a .hidden __riscv_save_6
00000858 g     F .text	00000038 OLED_Clear
0000047e  w      .text	00000000 SPI2_IRQHandler
00000200 g     F .text	00000020 .hidden __riscv_restore_9
0000020a g     F .text	00000016 .hidden __riscv_restore_7
00000232 g     F .text	00000024 main
0000047e  w      .text	00000000 TIM10_BRK_IRQHandler
0000047e  w      .text	00000000 TIM9_CC_IRQHandler
0000047e  w      .text	00000000 DMA2_Channel5_IRQHandler
0000047e  w      .text	00000000 DMA1_Channel5_IRQHandler
0000047e  w      .text	00000000 EXTI4_IRQHandler
0000107a g     F .text	00000036 Delay_Ms
0000047e  w      .text	00000000 USB_LP_CAN1_RX0_IRQHandler
000009a6 g     F .text	000003ca OLED_DisplayString
00000256 g     F .text	000000fa SystemInit
0000047e  w      .text	00000000 RNG_IRQHandler
0000047e  w      .text	00000000 USB_HP_CAN1_TX_IRQHandler
00000000 g       .init	00000000 _sinit
0000047e  w      .text	00000000 DMA1_Channel3_IRQHandler
2000002c g     O .bss	00000001 isToSend
0000047e  w      .text	00000000 ETH_IRQHandler
00000fa8 g     F .text	00000020 TIM1_UP_IRQHandler
0000047e  w      .text	00000000 WWDG_IRQHandler
0000047e  w      .text	00000000 USBHSWakeup_IRQHandler
0000047e  w      .text	00000000 DMA2_Channel11_IRQHandler
0000047e  w      .text	00000000 Ecall_U_Mode_Handler
0000047e  w      .text	00000000 DMA2_Channel6_IRQHandler
0000047e  w      .text	00000000 TIM2_IRQHandler
20008000 g       .stack	00000000 _eusrstack
000001f0 g     F .text	0000000c .hidden __riscv_save_2
0000047e  w      .text	00000000 SW_Handler
0000047e  w      .text	00000000 TIM1_BRK_IRQHandler
0000047e  w      .text	00000000 DMA2_Channel10_IRQHandler
0000047e  w      .text	00000000 EXTI1_IRQHandler
000001d6 g     F .text	0000001a .hidden __riscv_save_5
20000028 g       .data	00000000 _edata
20000098 g       .bss	00000000 _end
0000047e  w      .text	00000000 RTCAlarm_IRQHandler
00001dc0 g       .dlalign	00000000 _data_lma
0000047e  w      .text	00000000 TIM10_UP_IRQHandler
0000047e  w      .text	00000000 TIM9_TRG_COM_IRQHandler
0000047e  w      .text	00000000 UART7_IRQHandler
00001150 g     O .text	000005f0 ASCII_8_16
0000047e  w      .text	00000000 USART2_IRQHandler
0000047e  w      .text	00000000 UART6_IRQHandler
00000e22 g     F .text	00000032 Driver_I2C2_Stop
00000350 g     F .text	0000012e SystemCoreClockUpdate
0000047e  w      .text	00000000 I2C2_ER_IRQHandler
0000047e  w      .text	00000000 DMA1_Channel2_IRQHandler
00000df0 g     F .text	00000032 Driver_I2C2_Start
000001fc g     F .text	00000024 .hidden __riscv_restore_12
0000047e  w      .text	00000000 TIM8_BRK_IRQHandler
00000480  w      .text	00000000 handle_reset
0000047e  w      .text	00000000 CAN1_SCE_IRQHandler
0000047e  w      .text	00000000 FLASH_IRQHandler
000001f0 g     F .text	0000000c .hidden __riscv_save_0
00000fdc g     F .text	0000003e USART1_IRQHandler
0000047e  w      .text	00000000 SPI3_IRQHandler
0000047e  w      .text	00000000 I2C1_ER_IRQHandler
000005ca g     F .text	00000006 NVIC_PriorityGroupConfig
2000002d g     O .bss	00000001 len
00000214 g     F .text	0000000c .hidden __riscv_restore_1
00000806 g     F .text	00000036 OLED_WR_Byte
0000047e  w      .text	00000000 USBWakeUp_IRQHandler
0000047e  w      .text	00000000 DMA2_Channel3_IRQHandler



Disassembly of section .init:

00000000 <_sinit>:
   0:	4800006f          	j	480 <handle_reset>

Disassembly of section .vector:

00000004 <_vector_base>:
	...
   c:	0220                	addi	s0,sp,264
   e:	0000                	unimp
  10:	0222                	slli	tp,tp,0x8
  12:	0000                	unimp
  14:	0000                	unimp
  16:	0000                	unimp
  18:	047e                	slli	s0,s0,0x1f
	...
  22:	0000                	unimp
  24:	047e                	slli	s0,s0,0x1f
  26:	0000                	unimp
  28:	047e                	slli	s0,s0,0x1f
	...
  32:	0000                	unimp
  34:	047e                	slli	s0,s0,0x1f
  36:	0000                	unimp
  38:	0000                	unimp
  3a:	0000                	unimp
  3c:	047e                	slli	s0,s0,0x1f
  3e:	0000                	unimp
  40:	0000                	unimp
  42:	0000                	unimp
  44:	047e                	slli	s0,s0,0x1f
  46:	0000                	unimp
  48:	047e                	slli	s0,s0,0x1f
  4a:	0000                	unimp
  4c:	047e                	slli	s0,s0,0x1f
  4e:	0000                	unimp
  50:	047e                	slli	s0,s0,0x1f
  52:	0000                	unimp
  54:	047e                	slli	s0,s0,0x1f
  56:	0000                	unimp
  58:	047e                	slli	s0,s0,0x1f
  5a:	0000                	unimp
  5c:	047e                	slli	s0,s0,0x1f
  5e:	0000                	unimp
  60:	047e                	slli	s0,s0,0x1f
  62:	0000                	unimp
  64:	047e                	slli	s0,s0,0x1f
  66:	0000                	unimp
  68:	047e                	slli	s0,s0,0x1f
  6a:	0000                	unimp
  6c:	047e                	slli	s0,s0,0x1f
  6e:	0000                	unimp
  70:	047e                	slli	s0,s0,0x1f
  72:	0000                	unimp
  74:	047e                	slli	s0,s0,0x1f
  76:	0000                	unimp
  78:	047e                	slli	s0,s0,0x1f
  7a:	0000                	unimp
  7c:	047e                	slli	s0,s0,0x1f
  7e:	0000                	unimp
  80:	047e                	slli	s0,s0,0x1f
  82:	0000                	unimp
  84:	047e                	slli	s0,s0,0x1f
  86:	0000                	unimp
  88:	047e                	slli	s0,s0,0x1f
  8a:	0000                	unimp
  8c:	047e                	slli	s0,s0,0x1f
  8e:	0000                	unimp
  90:	047e                	slli	s0,s0,0x1f
  92:	0000                	unimp
  94:	047e                	slli	s0,s0,0x1f
  96:	0000                	unimp
  98:	047e                	slli	s0,s0,0x1f
  9a:	0000                	unimp
  9c:	047e                	slli	s0,s0,0x1f
  9e:	0000                	unimp
  a0:	047e                	slli	s0,s0,0x1f
  a2:	0000                	unimp
  a4:	047e                	slli	s0,s0,0x1f
  a6:	0000                	unimp
  a8:	0fa8                	addi	a0,sp,984
  aa:	0000                	unimp
  ac:	047e                	slli	s0,s0,0x1f
  ae:	0000                	unimp
  b0:	047e                	slli	s0,s0,0x1f
  b2:	0000                	unimp
  b4:	047e                	slli	s0,s0,0x1f
  b6:	0000                	unimp
  b8:	047e                	slli	s0,s0,0x1f
  ba:	0000                	unimp
  bc:	047e                	slli	s0,s0,0x1f
  be:	0000                	unimp
  c0:	047e                	slli	s0,s0,0x1f
  c2:	0000                	unimp
  c4:	047e                	slli	s0,s0,0x1f
  c6:	0000                	unimp
  c8:	047e                	slli	s0,s0,0x1f
  ca:	0000                	unimp
  cc:	047e                	slli	s0,s0,0x1f
  ce:	0000                	unimp
  d0:	047e                	slli	s0,s0,0x1f
  d2:	0000                	unimp
  d4:	047e                	slli	s0,s0,0x1f
  d6:	0000                	unimp
  d8:	0fdc                	addi	a5,sp,980
  da:	0000                	unimp
  dc:	047e                	slli	s0,s0,0x1f
  de:	0000                	unimp
  e0:	047e                	slli	s0,s0,0x1f
  e2:	0000                	unimp
  e4:	0f22                	slli	t5,t5,0x8
  e6:	0000                	unimp
  e8:	047e                	slli	s0,s0,0x1f
  ea:	0000                	unimp
  ec:	047e                	slli	s0,s0,0x1f
  ee:	0000                	unimp
  f0:	047e                	slli	s0,s0,0x1f
  f2:	0000                	unimp
  f4:	047e                	slli	s0,s0,0x1f
  f6:	0000                	unimp
  f8:	047e                	slli	s0,s0,0x1f
  fa:	0000                	unimp
  fc:	047e                	slli	s0,s0,0x1f
  fe:	0000                	unimp
 100:	047e                	slli	s0,s0,0x1f
 102:	0000                	unimp
 104:	0000                	unimp
 106:	0000                	unimp
 108:	047e                	slli	s0,s0,0x1f
 10a:	0000                	unimp
 10c:	047e                	slli	s0,s0,0x1f
 10e:	0000                	unimp
 110:	047e                	slli	s0,s0,0x1f
 112:	0000                	unimp
 114:	047e                	slli	s0,s0,0x1f
 116:	0000                	unimp
 118:	047e                	slli	s0,s0,0x1f
 11a:	0000                	unimp
 11c:	0fc8                	addi	a0,sp,980
 11e:	0000                	unimp
 120:	047e                	slli	s0,s0,0x1f
 122:	0000                	unimp
 124:	047e                	slli	s0,s0,0x1f
 126:	0000                	unimp
 128:	047e                	slli	s0,s0,0x1f
 12a:	0000                	unimp
 12c:	047e                	slli	s0,s0,0x1f
 12e:	0000                	unimp
 130:	047e                	slli	s0,s0,0x1f
 132:	0000                	unimp
 134:	047e                	slli	s0,s0,0x1f
 136:	0000                	unimp
 138:	047e                	slli	s0,s0,0x1f
 13a:	0000                	unimp
 13c:	047e                	slli	s0,s0,0x1f
 13e:	0000                	unimp
 140:	047e                	slli	s0,s0,0x1f
 142:	0000                	unimp
 144:	047e                	slli	s0,s0,0x1f
 146:	0000                	unimp
 148:	047e                	slli	s0,s0,0x1f
 14a:	0000                	unimp
 14c:	047e                	slli	s0,s0,0x1f
 14e:	0000                	unimp
 150:	047e                	slli	s0,s0,0x1f
 152:	0000                	unimp
 154:	047e                	slli	s0,s0,0x1f
 156:	0000                	unimp
 158:	047e                	slli	s0,s0,0x1f
 15a:	0000                	unimp
 15c:	047e                	slli	s0,s0,0x1f
 15e:	0000                	unimp
 160:	047e                	slli	s0,s0,0x1f
 162:	0000                	unimp
 164:	047e                	slli	s0,s0,0x1f
 166:	0000                	unimp
 168:	047e                	slli	s0,s0,0x1f
 16a:	0000                	unimp
 16c:	047e                	slli	s0,s0,0x1f
 16e:	0000                	unimp
 170:	047e                	slli	s0,s0,0x1f
 172:	0000                	unimp
 174:	047e                	slli	s0,s0,0x1f
 176:	0000                	unimp
 178:	047e                	slli	s0,s0,0x1f
 17a:	0000                	unimp
 17c:	047e                	slli	s0,s0,0x1f
 17e:	0000                	unimp
 180:	047e                	slli	s0,s0,0x1f
 182:	0000                	unimp
 184:	047e                	slli	s0,s0,0x1f
 186:	0000                	unimp
 188:	047e                	slli	s0,s0,0x1f
 18a:	0000                	unimp
 18c:	047e                	slli	s0,s0,0x1f
 18e:	0000                	unimp
 190:	047e                	slli	s0,s0,0x1f
 192:	0000                	unimp
 194:	047e                	slli	s0,s0,0x1f
 196:	0000                	unimp
 198:	047e                	slli	s0,s0,0x1f
 19a:	0000                	unimp
 19c:	047e                	slli	s0,s0,0x1f
 19e:	0000                	unimp
 1a0:	047e                	slli	s0,s0,0x1f
	...

Disassembly of section .text:

000001c0 <__riscv_save_12>:
     1c0:	7139                	addi	sp,sp,-64
     1c2:	4301                	li	t1,0
     1c4:	c66e                	sw	s11,12(sp)
     1c6:	a019                	j	1cc <__riscv_save_10+0x4>

000001c8 <__riscv_save_10>:
     1c8:	7139                	addi	sp,sp,-64
     1ca:	5341                	li	t1,-16
     1cc:	c86a                	sw	s10,16(sp)
     1ce:	ca66                	sw	s9,20(sp)
     1d0:	cc62                	sw	s8,24(sp)
     1d2:	ce5e                	sw	s7,28(sp)
     1d4:	a019                	j	1da <__riscv_save_4+0x4>

000001d6 <__riscv_save_4>:
     1d6:	7139                	addi	sp,sp,-64
     1d8:	5301                	li	t1,-32
     1da:	d05a                	sw	s6,32(sp)
     1dc:	d256                	sw	s5,36(sp)
     1de:	d452                	sw	s4,40(sp)
     1e0:	d64e                	sw	s3,44(sp)
     1e2:	d84a                	sw	s2,48(sp)
     1e4:	da26                	sw	s1,52(sp)
     1e6:	dc22                	sw	s0,56(sp)
     1e8:	de06                	sw	ra,60(sp)
     1ea:	40610133          	sub	sp,sp,t1
     1ee:	8282                	jr	t0

000001f0 <__riscv_save_0>:
     1f0:	1141                	addi	sp,sp,-16
     1f2:	c04a                	sw	s2,0(sp)
     1f4:	c226                	sw	s1,4(sp)
     1f6:	c422                	sw	s0,8(sp)
     1f8:	c606                	sw	ra,12(sp)
     1fa:	8282                	jr	t0

000001fc <__riscv_restore_12>:
     1fc:	4db2                	lw	s11,12(sp)
     1fe:	0141                	addi	sp,sp,16

00000200 <__riscv_restore_10>:
     200:	4d02                	lw	s10,0(sp)
     202:	4c92                	lw	s9,4(sp)
     204:	4c22                	lw	s8,8(sp)
     206:	4bb2                	lw	s7,12(sp)
     208:	0141                	addi	sp,sp,16

0000020a <__riscv_restore_4>:
     20a:	4b02                	lw	s6,0(sp)
     20c:	4a92                	lw	s5,4(sp)
     20e:	4a22                	lw	s4,8(sp)
     210:	49b2                	lw	s3,12(sp)
     212:	0141                	addi	sp,sp,16

00000214 <__riscv_restore_0>:
     214:	4902                	lw	s2,0(sp)
     216:	4492                	lw	s1,4(sp)
     218:	4422                	lw	s0,8(sp)
     21a:	40b2                	lw	ra,12(sp)
     21c:	0141                	addi	sp,sp,16
     21e:	8082                	ret

00000220 <NMI_Handler>:
     220:	a001                	j	220 <NMI_Handler>

00000222 <HardFault_Handler>:
     222:	beef07b7          	lui	a5,0xbeef0
     226:	e000e737          	lui	a4,0xe000e
     22a:	08078793          	addi	a5,a5,128 # beef0080 <_eusrstack+0x9eee8080>
     22e:	c73c                	sw	a5,72(a4)
     230:	a001                	j	230 <HardFault_Handler+0xe>

00000232 <main>:
     232:	fbfff2ef          	jal	t0,1f0 <__riscv_save_0>
     236:	4509                	li	a0,2
     238:	2e49                	jal	5ca <NVIC_PriorityGroupConfig>
     23a:	2a19                	jal	350 <SystemCoreClockUpdate>
     23c:	5df000ef          	jal	ra,101a <Delay_Init>
     240:	6571                	lui	a0,0x1c
     242:	20050513          	addi	a0,a0,512 # 1c200 <_data_lma+0x1a440>
     246:	66b000ef          	jal	ra,10b0 <USART_Printf_Init>
     24a:	25bd                	jal	8b8 <OLED_Init>
     24c:	2bc5                	jal	83c <OLED_Display_On>
     24e:	2529                	jal	858 <OLED_Clear>
     250:	321000ef          	jal	ra,d70 <OLED_Menu_Display>
     254:	bff5                	j	250 <main+0x1e>

00000256 <SystemInit>:
     256:	400217b7          	lui	a5,0x40021
     25a:	4398                	lw	a4,0(a5)
     25c:	f0ff06b7          	lui	a3,0xf0ff0
     260:	1141                	addi	sp,sp,-16
     262:	00176713          	ori	a4,a4,1
     266:	c398                	sw	a4,0(a5)
     268:	43d8                	lw	a4,4(a5)
     26a:	00020637          	lui	a2,0x20
     26e:	8f75                	and	a4,a4,a3
     270:	c3d8                	sw	a4,4(a5)
     272:	4398                	lw	a4,0(a5)
     274:	fef706b7          	lui	a3,0xfef70
     278:	16fd                	addi	a3,a3,-1
     27a:	8f75                	and	a4,a4,a3
     27c:	c398                	sw	a4,0(a5)
     27e:	4398                	lw	a4,0(a5)
     280:	fffc06b7          	lui	a3,0xfffc0
     284:	16fd                	addi	a3,a3,-1
     286:	8f75                	and	a4,a4,a3
     288:	c398                	sw	a4,0(a5)
     28a:	43d8                	lw	a4,4(a5)
     28c:	ff0106b7          	lui	a3,0xff010
     290:	16fd                	addi	a3,a3,-1
     292:	8f75                	and	a4,a4,a3
     294:	c3d8                	sw	a4,4(a5)
     296:	4398                	lw	a4,0(a5)
     298:	ec0006b7          	lui	a3,0xec000
     29c:	16fd                	addi	a3,a3,-1
     29e:	8f75                	and	a4,a4,a3
     2a0:	c398                	sw	a4,0(a5)
     2a2:	00ff0737          	lui	a4,0xff0
     2a6:	c798                	sw	a4,8(a5)
     2a8:	0207a623          	sw	zero,44(a5) # 4002102c <_eusrstack+0x2001902c>
     2ac:	c402                	sw	zero,8(sp)
     2ae:	c602                	sw	zero,12(sp)
     2b0:	4398                	lw	a4,0(a5)
     2b2:	66c1                	lui	a3,0x10
     2b4:	8f55                	or	a4,a4,a3
     2b6:	c398                	sw	a4,0(a5)
     2b8:	400216b7          	lui	a3,0x40021
     2bc:	6705                	lui	a4,0x1
     2be:	429c                	lw	a5,0(a3)
     2c0:	8ff1                	and	a5,a5,a2
     2c2:	c63e                	sw	a5,12(sp)
     2c4:	47a2                	lw	a5,8(sp)
     2c6:	0785                	addi	a5,a5,1
     2c8:	c43e                	sw	a5,8(sp)
     2ca:	47b2                	lw	a5,12(sp)
     2cc:	e781                	bnez	a5,2d4 <SystemInit+0x7e>
     2ce:	47a2                	lw	a5,8(sp)
     2d0:	fee797e3          	bne	a5,a4,2be <SystemInit+0x68>
     2d4:	400217b7          	lui	a5,0x40021
     2d8:	439c                	lw	a5,0(a5)
     2da:	00e79713          	slli	a4,a5,0xe
     2de:	06075763          	bgez	a4,34c <SystemInit+0xf6>
     2e2:	4785                	li	a5,1
     2e4:	c63e                	sw	a5,12(sp)
     2e6:	4732                	lw	a4,12(sp)
     2e8:	4785                	li	a5,1
     2ea:	04f71f63          	bne	a4,a5,348 <SystemInit+0xf2>
     2ee:	400217b7          	lui	a5,0x40021
     2f2:	43d8                	lw	a4,4(a5)
     2f4:	ffc106b7          	lui	a3,0xffc10
     2f8:	16fd                	addi	a3,a3,-1
     2fa:	c3d8                	sw	a4,4(a5)
     2fc:	43d8                	lw	a4,4(a5)
     2fe:	c3d8                	sw	a4,4(a5)
     300:	43d8                	lw	a4,4(a5)
     302:	40076713          	ori	a4,a4,1024
     306:	c3d8                	sw	a4,4(a5)
     308:	43d8                	lw	a4,4(a5)
     30a:	8f75                	and	a4,a4,a3
     30c:	c3d8                	sw	a4,4(a5)
     30e:	43d8                	lw	a4,4(a5)
     310:	002906b7          	lui	a3,0x290
     314:	8f55                	or	a4,a4,a3
     316:	c3d8                	sw	a4,4(a5)
     318:	4398                	lw	a4,0(a5)
     31a:	010006b7          	lui	a3,0x1000
     31e:	8f55                	or	a4,a4,a3
     320:	c398                	sw	a4,0(a5)
     322:	4398                	lw	a4,0(a5)
     324:	00671693          	slli	a3,a4,0x6
     328:	fe06dde3          	bgez	a3,322 <SystemInit+0xcc>
     32c:	43d8                	lw	a4,4(a5)
     32e:	400216b7          	lui	a3,0x40021
     332:	9b71                	andi	a4,a4,-4
     334:	c3d8                	sw	a4,4(a5)
     336:	43d8                	lw	a4,4(a5)
     338:	00276713          	ori	a4,a4,2
     33c:	c3d8                	sw	a4,4(a5)
     33e:	4721                	li	a4,8
     340:	42dc                	lw	a5,4(a3)
     342:	8bb1                	andi	a5,a5,12
     344:	fee79ee3          	bne	a5,a4,340 <SystemInit+0xea>
     348:	0141                	addi	sp,sp,16
     34a:	8082                	ret
     34c:	c602                	sw	zero,12(sp)
     34e:	bf61                	j	2e6 <SystemInit+0x90>

00000350 <SystemCoreClockUpdate>:
     350:	400216b7          	lui	a3,0x40021
     354:	42d8                	lw	a4,4(a3)
     356:	200007b7          	lui	a5,0x20000
     35a:	4611                	li	a2,4
     35c:	8b31                	andi	a4,a4,12
     35e:	02078793          	addi	a5,a5,32 # 20000020 <SystemCoreClock>
     362:	00c70563          	beq	a4,a2,36c <SystemCoreClockUpdate+0x1c>
     366:	4621                	li	a2,8
     368:	02c70863          	beq	a4,a2,398 <SystemCoreClockUpdate+0x48>
     36c:	007a1737          	lui	a4,0x7a1
     370:	20070713          	addi	a4,a4,512 # 7a1200 <_data_lma+0x79f440>
     374:	c398                	sw	a4,0(a5)
     376:	40021737          	lui	a4,0x40021
     37a:	4358                	lw	a4,4(a4)
     37c:	8311                	srli	a4,a4,0x4
     37e:	00f77693          	andi	a3,a4,15
     382:	20000737          	lui	a4,0x20000
     386:	00070713          	mv	a4,a4
     38a:	9736                	add	a4,a4,a3
     38c:	2314                	lbu	a3,0(a4)
     38e:	4398                	lw	a4,0(a5)
     390:	00d75733          	srl	a4,a4,a3
     394:	c398                	sw	a4,0(a5)
     396:	8082                	ret
     398:	42d8                	lw	a4,4(a3)
     39a:	42d4                	lw	a3,4(a3)
     39c:	6641                	lui	a2,0x10
     39e:	8349                	srli	a4,a4,0x12
     3a0:	8b3d                	andi	a4,a4,15
     3a2:	8ef1                	and	a3,a3,a2
     3a4:	00270613          	addi	a2,a4,2 # 20000002 <_data_vma+0x2>
     3a8:	cf15                	beqz	a4,3e4 <SystemCoreClockUpdate+0x94>
     3aa:	473d                	li	a4,15
     3ac:	02e60f63          	beq	a2,a4,3ea <SystemCoreClockUpdate+0x9a>
     3b0:	4741                	li	a4,16
     3b2:	02e60f63          	beq	a2,a4,3f0 <SystemCoreClockUpdate+0xa0>
     3b6:	4745                	li	a4,17
     3b8:	4581                	li	a1,0
     3ba:	00e61363          	bne	a2,a4,3c0 <SystemCoreClockUpdate+0x70>
     3be:	4641                	li	a2,16
     3c0:	e2a1                	bnez	a3,400 <SystemCoreClockUpdate+0xb0>
     3c2:	40024737          	lui	a4,0x40024
     3c6:	80072703          	lw	a4,-2048(a4) # 40023800 <_eusrstack+0x2001b800>
     3ca:	8b41                	andi	a4,a4,16
     3cc:	c70d                	beqz	a4,3f6 <SystemCoreClockUpdate+0xa6>
     3ce:	007a1737          	lui	a4,0x7a1
     3d2:	20070713          	addi	a4,a4,512 # 7a1200 <_data_lma+0x79f440>
     3d6:	02c70633          	mul	a2,a4,a2
     3da:	c390                	sw	a2,0(a5)
     3dc:	ddc9                	beqz	a1,376 <SystemCoreClockUpdate+0x26>
     3de:	4398                	lw	a4,0(a5)
     3e0:	8305                	srli	a4,a4,0x1
     3e2:	bf49                	j	374 <SystemCoreClockUpdate+0x24>
     3e4:	4581                	li	a1,0
     3e6:	4649                	li	a2,18
     3e8:	bfe1                	j	3c0 <SystemCoreClockUpdate+0x70>
     3ea:	4585                	li	a1,1
     3ec:	4635                	li	a2,13
     3ee:	bfc9                	j	3c0 <SystemCoreClockUpdate+0x70>
     3f0:	4581                	li	a1,0
     3f2:	463d                	li	a2,15
     3f4:	b7f1                	j	3c0 <SystemCoreClockUpdate+0x70>
     3f6:	003d1737          	lui	a4,0x3d1
     3fa:	90070713          	addi	a4,a4,-1792 # 3d0900 <_data_lma+0x3ceb40>
     3fe:	bfe1                	j	3d6 <SystemCoreClockUpdate+0x86>
     400:	40021537          	lui	a0,0x40021
     404:	5558                	lw	a4,44(a0)
     406:	00f71693          	slli	a3,a4,0xf
     40a:	5558                	lw	a4,44(a0)
     40c:	0406df63          	bgez	a3,46a <SystemCoreClockUpdate+0x11a>
     410:	8311                	srli	a4,a4,0x4
     412:	8b3d                	andi	a4,a4,15
     414:	00170693          	addi	a3,a4,1
     418:	007a1737          	lui	a4,0x7a1
     41c:	20070713          	addi	a4,a4,512 # 7a1200 <_data_lma+0x79f440>
     420:	02d75733          	divu	a4,a4,a3
     424:	c398                	sw	a4,0(a5)
     426:	5554                	lw	a3,44(a0)
     428:	82a1                	srli	a3,a3,0x8
     42a:	8abd                	andi	a3,a3,15
     42c:	e28d                	bnez	a3,44e <SystemCoreClockUpdate+0xfe>
     42e:	4695                	li	a3,5
     430:	02d70733          	mul	a4,a4,a3
     434:	8305                	srli	a4,a4,0x1
     436:	c398                	sw	a4,0(a5)
     438:	40021737          	lui	a4,0x40021
     43c:	5758                	lw	a4,44(a4)
     43e:	4394                	lw	a3,0(a5)
     440:	8b3d                	andi	a4,a4,15
     442:	0705                	addi	a4,a4,1
     444:	02e6d733          	divu	a4,a3,a4
     448:	c398                	sw	a4,0(a5)
     44a:	4398                	lw	a4,0(a5)
     44c:	b769                	j	3d6 <SystemCoreClockUpdate+0x86>
     44e:	4505                	li	a0,1
     450:	00a69463          	bne	a3,a0,458 <SystemCoreClockUpdate+0x108>
     454:	46e5                	li	a3,25
     456:	bfe9                	j	430 <SystemCoreClockUpdate+0xe0>
     458:	453d                	li	a0,15
     45a:	00a69663          	bne	a3,a0,466 <SystemCoreClockUpdate+0x116>
     45e:	46d1                	li	a3,20
     460:	02e68733          	mul	a4,a3,a4
     464:	bfc9                	j	436 <SystemCoreClockUpdate+0xe6>
     466:	0689                	addi	a3,a3,2
     468:	bfe5                	j	460 <SystemCoreClockUpdate+0x110>
     46a:	8b3d                	andi	a4,a4,15
     46c:	00170693          	addi	a3,a4,1 # 40021001 <_eusrstack+0x20019001>
     470:	007a1737          	lui	a4,0x7a1
     474:	20070713          	addi	a4,a4,512 # 7a1200 <_data_lma+0x79f440>
     478:	02d75733          	divu	a4,a4,a3
     47c:	b7f1                	j	448 <SystemCoreClockUpdate+0xf8>

0000047e <ADC1_2_IRQHandler>:
     47e:	a001                	j	47e <ADC1_2_IRQHandler>

00000480 <handle_reset>:
     480:	20000197          	auipc	gp,0x20000
     484:	3a018193          	addi	gp,gp,928 # 20000820 <__global_pointer$>
     488:	20008117          	auipc	sp,0x20008
     48c:	b7810113          	addi	sp,sp,-1160 # 20008000 <_eusrstack>
     490:	00002517          	auipc	a0,0x2
     494:	93050513          	addi	a0,a0,-1744 # 1dc0 <_data_lma>
     498:	20000597          	auipc	a1,0x20000
     49c:	b6858593          	addi	a1,a1,-1176 # 20000000 <_data_vma>
     4a0:	80818613          	addi	a2,gp,-2040 # 20000028 <_edata>
     4a4:	00c5fa63          	bgeu	a1,a2,4b8 <handle_reset+0x38>
     4a8:	00052283          	lw	t0,0(a0)
     4ac:	0055a023          	sw	t0,0(a1)
     4b0:	0511                	addi	a0,a0,4
     4b2:	0591                	addi	a1,a1,4
     4b4:	fec5eae3          	bltu	a1,a2,4a8 <handle_reset+0x28>
     4b8:	80818513          	addi	a0,gp,-2040 # 20000028 <_edata>
     4bc:	87818593          	addi	a1,gp,-1928 # 20000098 <_ebss>
     4c0:	00b57763          	bgeu	a0,a1,4ce <handle_reset+0x4e>
     4c4:	00052023          	sw	zero,0(a0)
     4c8:	0511                	addi	a0,a0,4
     4ca:	feb56de3          	bltu	a0,a1,4c4 <handle_reset+0x44>
     4ce:	42fd                	li	t0,31
     4d0:	bc029073          	csrw	0xbc0,t0
     4d4:	42ad                	li	t0,11
     4d6:	80429073          	csrw	0x804,t0
     4da:	000062b7          	lui	t0,0x6
     4de:	08828293          	addi	t0,t0,136 # 6088 <_data_lma+0x42c8>
     4e2:	30029073          	csrw	mstatus,t0
     4e6:	00000297          	auipc	t0,0x0
     4ea:	b1e28293          	addi	t0,t0,-1250 # 4 <_einit>
     4ee:	0032e293          	ori	t0,t0,3
     4f2:	30529073          	csrw	mtvec,t0
     4f6:	d61ff0ef          	jal	ra,256 <SystemInit>
     4fa:	00000297          	auipc	t0,0x0
     4fe:	d3828293          	addi	t0,t0,-712 # 232 <main>
     502:	34129073          	csrw	mepc,t0
     506:	30200073          	mret

0000050a <GPIO_Init>:
     50a:	459c                	lw	a5,8(a1)
     50c:	0107f713          	andi	a4,a5,16
     510:	00f7f813          	andi	a6,a5,15
     514:	c701                	beqz	a4,51c <GPIO_Init+0x12>
     516:	41d8                	lw	a4,4(a1)
     518:	00e86833          	or	a6,a6,a4
     51c:	218e                	lhu	a1,0(a1)
     51e:	0ff5f713          	andi	a4,a1,255
     522:	c339                	beqz	a4,568 <GPIO_Init+0x5e>
     524:	4118                	lw	a4,0(a0)
     526:	4681                	li	a3,0
     528:	4e85                	li	t4,1
     52a:	4f3d                	li	t5,15
     52c:	02800f93          	li	t6,40
     530:	04800293          	li	t0,72
     534:	4e21                	li	t3,8
     536:	00de9633          	sll	a2,t4,a3
     53a:	00c5f8b3          	and	a7,a1,a2
     53e:	03161163          	bne	a2,a7,560 <GPIO_Init+0x56>
     542:	00269893          	slli	a7,a3,0x2
     546:	011f1333          	sll	t1,t5,a7
     54a:	fff34313          	not	t1,t1
     54e:	00e37733          	and	a4,t1,a4
     552:	011818b3          	sll	a7,a6,a7
     556:	00e8e733          	or	a4,a7,a4
     55a:	05f79f63          	bne	a5,t6,5b8 <GPIO_Init+0xae>
     55e:	c950                	sw	a2,20(a0)
     560:	0685                	addi	a3,a3,1
     562:	fdc69ae3          	bne	a3,t3,536 <GPIO_Init+0x2c>
     566:	c118                	sw	a4,0(a0)
     568:	0ff00713          	li	a4,255
     56c:	04b77563          	bgeu	a4,a1,5b6 <GPIO_Init+0xac>
     570:	4154                	lw	a3,4(a0)
     572:	4621                	li	a2,8
     574:	4e85                	li	t4,1
     576:	4f3d                	li	t5,15
     578:	02800f93          	li	t6,40
     57c:	04800293          	li	t0,72
     580:	4e41                	li	t3,16
     582:	00ce98b3          	sll	a7,t4,a2
     586:	0115f733          	and	a4,a1,a7
     58a:	02e89263          	bne	a7,a4,5ae <GPIO_Init+0xa4>
     58e:	00261713          	slli	a4,a2,0x2
     592:	1701                	addi	a4,a4,-32
     594:	00ef1333          	sll	t1,t5,a4
     598:	fff34313          	not	t1,t1
     59c:	00d376b3          	and	a3,t1,a3
     5a0:	00e81733          	sll	a4,a6,a4
     5a4:	8ed9                	or	a3,a3,a4
     5a6:	01f79d63          	bne	a5,t6,5c0 <GPIO_Init+0xb6>
     5aa:	01152a23          	sw	a7,20(a0)
     5ae:	0605                	addi	a2,a2,1
     5b0:	fdc619e3          	bne	a2,t3,582 <GPIO_Init+0x78>
     5b4:	c154                	sw	a3,4(a0)
     5b6:	8082                	ret
     5b8:	fa5794e3          	bne	a5,t0,560 <GPIO_Init+0x56>
     5bc:	c910                	sw	a2,16(a0)
     5be:	b74d                	j	560 <GPIO_Init+0x56>
     5c0:	fe5797e3          	bne	a5,t0,5ae <GPIO_Init+0xa4>
     5c4:	01152823          	sw	a7,16(a0)
     5c8:	b7dd                	j	5ae <GPIO_Init+0xa4>

000005ca <NVIC_PriorityGroupConfig>:
     5ca:	80a1a423          	sw	a0,-2040(gp) # 20000028 <_edata>
     5ce:	8082                	ret

000005d0 <RCC_GetClocksFreq>:
     5d0:	40021737          	lui	a4,0x40021
     5d4:	435c                	lw	a5,4(a4)
     5d6:	4691                	li	a3,4
     5d8:	8bb1                	andi	a5,a5,12
     5da:	00d78563          	beq	a5,a3,5e4 <RCC_GetClocksFreq+0x14>
     5de:	46a1                	li	a3,8
     5e0:	06d78263          	beq	a5,a3,644 <RCC_GetClocksFreq+0x74>
     5e4:	007a17b7          	lui	a5,0x7a1
     5e8:	20078793          	addi	a5,a5,512 # 7a1200 <_data_lma+0x79f440>
     5ec:	c11c                	sw	a5,0(a0)
     5ee:	40021637          	lui	a2,0x40021
     5f2:	425c                	lw	a5,4(a2)
     5f4:	20000737          	lui	a4,0x20000
     5f8:	01070713          	addi	a4,a4,16 # 20000010 <APBAHBPrescTable>
     5fc:	8391                	srli	a5,a5,0x4
     5fe:	8bbd                	andi	a5,a5,15
     600:	97ba                	add	a5,a5,a4
     602:	2394                	lbu	a3,0(a5)
     604:	411c                	lw	a5,0(a0)
     606:	00d7d7b3          	srl	a5,a5,a3
     60a:	c15c                	sw	a5,4(a0)
     60c:	4254                	lw	a3,4(a2)
     60e:	82a1                	srli	a3,a3,0x8
     610:	8a9d                	andi	a3,a3,7
     612:	96ba                	add	a3,a3,a4
     614:	2294                	lbu	a3,0(a3)
     616:	00d7d6b3          	srl	a3,a5,a3
     61a:	c514                	sw	a3,8(a0)
     61c:	4254                	lw	a3,4(a2)
     61e:	82ad                	srli	a3,a3,0xb
     620:	8a9d                	andi	a3,a3,7
     622:	9736                	add	a4,a4,a3
     624:	2318                	lbu	a4,0(a4)
     626:	00e7d7b3          	srl	a5,a5,a4
     62a:	c55c                	sw	a5,12(a0)
     62c:	4258                	lw	a4,4(a2)
     62e:	8339                	srli	a4,a4,0xe
     630:	00377693          	andi	a3,a4,3
     634:	80418713          	addi	a4,gp,-2044 # 20000024 <ADCPrescTable>
     638:	9736                	add	a4,a4,a3
     63a:	2318                	lbu	a4,0(a4)
     63c:	02e7d7b3          	divu	a5,a5,a4
     640:	c91c                	sw	a5,16(a0)
     642:	8082                	ret
     644:	435c                	lw	a5,4(a4)
     646:	4358                	lw	a4,4(a4)
     648:	66c1                	lui	a3,0x10
     64a:	83c9                	srli	a5,a5,0x12
     64c:	8f75                	and	a4,a4,a3
     64e:	1ffff6b7          	lui	a3,0x1ffff
     652:	70c6a683          	lw	a3,1804(a3) # 1ffff70c <_data_lma+0x1fffd94c>
     656:	8bbd                	andi	a5,a5,15
     658:	0789                	addi	a5,a5,2
     65a:	01169613          	slli	a2,a3,0x11
     65e:	00064863          	bltz	a2,66e <RCC_GetClocksFreq+0x9e>
     662:	46c5                	li	a3,17
     664:	4601                	li	a2,0
     666:	02d79263          	bne	a5,a3,68a <RCC_GetClocksFreq+0xba>
     66a:	47c9                	li	a5,18
     66c:	a839                	j	68a <RCC_GetClocksFreq+0xba>
     66e:	4689                	li	a3,2
     670:	02d78f63          	beq	a5,a3,6ae <RCC_GetClocksFreq+0xde>
     674:	46bd                	li	a3,15
     676:	02d78e63          	beq	a5,a3,6b2 <RCC_GetClocksFreq+0xe2>
     67a:	46c1                	li	a3,16
     67c:	02d78e63          	beq	a5,a3,6b8 <RCC_GetClocksFreq+0xe8>
     680:	46c5                	li	a3,17
     682:	4601                	li	a2,0
     684:	00d79363          	bne	a5,a3,68a <RCC_GetClocksFreq+0xba>
     688:	47c1                	li	a5,16
     68a:	ef1d                	bnez	a4,6c8 <RCC_GetClocksFreq+0xf8>
     68c:	40024737          	lui	a4,0x40024
     690:	80072703          	lw	a4,-2048(a4) # 40023800 <_eusrstack+0x2001b800>
     694:	8b41                	andi	a4,a4,16
     696:	c705                	beqz	a4,6be <RCC_GetClocksFreq+0xee>
     698:	007a1737          	lui	a4,0x7a1
     69c:	20070713          	addi	a4,a4,512 # 7a1200 <_data_lma+0x79f440>
     6a0:	02f707b3          	mul	a5,a4,a5
     6a4:	c11c                	sw	a5,0(a0)
     6a6:	d621                	beqz	a2,5ee <RCC_GetClocksFreq+0x1e>
     6a8:	411c                	lw	a5,0(a0)
     6aa:	8385                	srli	a5,a5,0x1
     6ac:	b781                	j	5ec <RCC_GetClocksFreq+0x1c>
     6ae:	4601                	li	a2,0
     6b0:	bf6d                	j	66a <RCC_GetClocksFreq+0x9a>
     6b2:	4605                	li	a2,1
     6b4:	47b5                	li	a5,13
     6b6:	bfd1                	j	68a <RCC_GetClocksFreq+0xba>
     6b8:	4601                	li	a2,0
     6ba:	47bd                	li	a5,15
     6bc:	b7f9                	j	68a <RCC_GetClocksFreq+0xba>
     6be:	003d1737          	lui	a4,0x3d1
     6c2:	90070713          	addi	a4,a4,-1792 # 3d0900 <_data_lma+0x3ceb40>
     6c6:	bfe9                	j	6a0 <RCC_GetClocksFreq+0xd0>
     6c8:	400215b7          	lui	a1,0x40021
     6cc:	55d8                	lw	a4,44(a1)
     6ce:	00f71693          	slli	a3,a4,0xf
     6d2:	55d8                	lw	a4,44(a1)
     6d4:	0406df63          	bgez	a3,732 <RCC_GetClocksFreq+0x162>
     6d8:	8311                	srli	a4,a4,0x4
     6da:	8b3d                	andi	a4,a4,15
     6dc:	00170693          	addi	a3,a4,1
     6e0:	007a1737          	lui	a4,0x7a1
     6e4:	20070713          	addi	a4,a4,512 # 7a1200 <_data_lma+0x79f440>
     6e8:	02d75733          	divu	a4,a4,a3
     6ec:	c118                	sw	a4,0(a0)
     6ee:	55d4                	lw	a3,44(a1)
     6f0:	82a1                	srli	a3,a3,0x8
     6f2:	8abd                	andi	a3,a3,15
     6f4:	e28d                	bnez	a3,716 <RCC_GetClocksFreq+0x146>
     6f6:	4695                	li	a3,5
     6f8:	02d70733          	mul	a4,a4,a3
     6fc:	8305                	srli	a4,a4,0x1
     6fe:	c118                	sw	a4,0(a0)
     700:	40021737          	lui	a4,0x40021
     704:	5758                	lw	a4,44(a4)
     706:	4114                	lw	a3,0(a0)
     708:	8b3d                	andi	a4,a4,15
     70a:	0705                	addi	a4,a4,1
     70c:	02e6d733          	divu	a4,a3,a4
     710:	c118                	sw	a4,0(a0)
     712:	4118                	lw	a4,0(a0)
     714:	b771                	j	6a0 <RCC_GetClocksFreq+0xd0>
     716:	4585                	li	a1,1
     718:	00b69463          	bne	a3,a1,720 <RCC_GetClocksFreq+0x150>
     71c:	46e5                	li	a3,25
     71e:	bfe9                	j	6f8 <RCC_GetClocksFreq+0x128>
     720:	45bd                	li	a1,15
     722:	00b69663          	bne	a3,a1,72e <RCC_GetClocksFreq+0x15e>
     726:	46d1                	li	a3,20
     728:	02e68733          	mul	a4,a3,a4
     72c:	bfc9                	j	6fe <RCC_GetClocksFreq+0x12e>
     72e:	0689                	addi	a3,a3,2
     730:	bfe5                	j	728 <RCC_GetClocksFreq+0x158>
     732:	8b3d                	andi	a4,a4,15
     734:	00170693          	addi	a3,a4,1 # 40021001 <_eusrstack+0x20019001>
     738:	007a1737          	lui	a4,0x7a1
     73c:	20070713          	addi	a4,a4,512 # 7a1200 <_data_lma+0x79f440>
     740:	02d75733          	divu	a4,a4,a3
     744:	b7f1                	j	710 <RCC_GetClocksFreq+0x140>

00000746 <RCC_APB2PeriphClockCmd>:
     746:	c599                	beqz	a1,754 <RCC_APB2PeriphClockCmd+0xe>
     748:	40021737          	lui	a4,0x40021
     74c:	4f1c                	lw	a5,24(a4)
     74e:	8d5d                	or	a0,a0,a5
     750:	cf08                	sw	a0,24(a4)
     752:	8082                	ret
     754:	400217b7          	lui	a5,0x40021
     758:	4f98                	lw	a4,24(a5)
     75a:	fff54513          	not	a0,a0
     75e:	8d79                	and	a0,a0,a4
     760:	cf88                	sw	a0,24(a5)
     762:	8082                	ret

00000764 <USART_Init>:
     764:	a8dff2ef          	jal	t0,1f0 <__riscv_save_0>
     768:	2916                	lhu	a3,16(a0)
     76a:	77f5                	lui	a5,0xffffd
     76c:	17fd                	addi	a5,a5,-1
     76e:	8ff5                	and	a5,a5,a3
     770:	21f6                	lhu	a3,6(a1)
     772:	25da                	lhu	a4,12(a1)
     774:	7179                	addi	sp,sp,-48
     776:	8fd5                	or	a5,a5,a3
     778:	a91e                	sh	a5,16(a0)
     77a:	2556                	lhu	a3,12(a0)
     77c:	77fd                	lui	a5,0xfffff
     77e:	9f378793          	addi	a5,a5,-1549 # ffffe9f3 <_eusrstack+0xdfff69f3>
     782:	8ff5                	and	a5,a5,a3
     784:	21d6                	lhu	a3,4(a1)
     786:	842a                	mv	s0,a0
     788:	c62e                	sw	a1,12(sp)
     78a:	8fd5                	or	a5,a5,a3
     78c:	2596                	lhu	a3,8(a1)
     78e:	8fd5                	or	a5,a5,a3
     790:	25b6                	lhu	a3,10(a1)
     792:	8fd5                	or	a5,a5,a3
     794:	a55e                	sh	a5,12(a0)
     796:	295e                	lhu	a5,20(a0)
     798:	07c2                	slli	a5,a5,0x10
     79a:	83c1                	srli	a5,a5,0x10
     79c:	cff7f793          	andi	a5,a5,-769
     7a0:	8fd9                	or	a5,a5,a4
     7a2:	a95e                	sh	a5,20(a0)
     7a4:	0868                	addi	a0,sp,28
     7a6:	352d                	jal	5d0 <RCC_GetClocksFreq>
     7a8:	400147b7          	lui	a5,0x40014
     7ac:	80078793          	addi	a5,a5,-2048 # 40013800 <_eusrstack+0x2000b800>
     7b0:	45b2                	lw	a1,12(sp)
     7b2:	02f41d63          	bne	s0,a5,7ec <USART_Init+0x88>
     7b6:	57a2                	lw	a5,40(sp)
     7b8:	4765                	li	a4,25
     7ba:	02e787b3          	mul	a5,a5,a4
     7be:	4198                	lw	a4,0(a1)
     7c0:	06400693          	li	a3,100
     7c4:	070a                	slli	a4,a4,0x2
     7c6:	02e7d7b3          	divu	a5,a5,a4
     7ca:	02d7d733          	divu	a4,a5,a3
     7ce:	02d7f7b3          	remu	a5,a5,a3
     7d2:	0712                	slli	a4,a4,0x4
     7d4:	0792                	slli	a5,a5,0x4
     7d6:	03278793          	addi	a5,a5,50
     7da:	02d7d7b3          	divu	a5,a5,a3
     7de:	8bbd                	andi	a5,a5,15
     7e0:	8fd9                	or	a5,a5,a4
     7e2:	07c2                	slli	a5,a5,0x10
     7e4:	83c1                	srli	a5,a5,0x10
     7e6:	a41e                	sh	a5,8(s0)
     7e8:	6145                	addi	sp,sp,48
     7ea:	b42d                	j	214 <__riscv_restore_0>
     7ec:	5792                	lw	a5,36(sp)
     7ee:	b7e9                	j	7b8 <USART_Init+0x54>

000007f0 <USART_Cmd>:
     7f0:	c591                	beqz	a1,7fc <USART_Cmd+0xc>
     7f2:	255e                	lhu	a5,12(a0)
     7f4:	6709                	lui	a4,0x2
     7f6:	8fd9                	or	a5,a5,a4
     7f8:	a55e                	sh	a5,12(a0)
     7fa:	8082                	ret
     7fc:	255a                	lhu	a4,12(a0)
     7fe:	77f9                	lui	a5,0xffffe
     800:	17fd                	addi	a5,a5,-1
     802:	8ff9                	and	a5,a5,a4
     804:	bfd5                	j	7f8 <USART_Cmd+0x8>

00000806 <OLED_WR_Byte>:
     806:	9ebff2ef          	jal	t0,1f0 <__riscv_save_0>
     80a:	1141                	addi	sp,sp,-16
     80c:	c62e                	sw	a1,12(sp)
     80e:	842a                	mv	s0,a0
     810:	23c5                	jal	df0 <Driver_I2C2_Start>
     812:	07800513          	li	a0,120
     816:	694000ef          	jal	ra,eaa <Driver_I2C_SendByte>
     81a:	63a000ef          	jal	ra,e54 <Driver_I2C2_Ack>
     81e:	45b2                	lw	a1,12(sp)
     820:	04000513          	li	a0,64
     824:	e191                	bnez	a1,828 <OLED_WR_Byte+0x22>
     826:	4501                	li	a0,0
     828:	682000ef          	jal	ra,eaa <Driver_I2C_SendByte>
     82c:	2525                	jal	e54 <Driver_I2C2_Ack>
     82e:	8522                	mv	a0,s0
     830:	67a000ef          	jal	ra,eaa <Driver_I2C_SendByte>
     834:	2505                	jal	e54 <Driver_I2C2_Ack>
     836:	23f5                	jal	e22 <Driver_I2C2_Stop>
     838:	0141                	addi	sp,sp,16
     83a:	bae9                	j	214 <__riscv_restore_0>

0000083c <OLED_Display_On>:
     83c:	9b5ff2ef          	jal	t0,1f0 <__riscv_save_0>
     840:	4581                	li	a1,0
     842:	08d00513          	li	a0,141
     846:	37c1                	jal	806 <OLED_WR_Byte>
     848:	4581                	li	a1,0
     84a:	4551                	li	a0,20
     84c:	3f6d                	jal	806 <OLED_WR_Byte>
     84e:	4581                	li	a1,0
     850:	0af00513          	li	a0,175
     854:	3f4d                	jal	806 <OLED_WR_Byte>
     856:	ba7d                	j	214 <__riscv_restore_0>

00000858 <OLED_Clear>:
     858:	999ff2ef          	jal	t0,1f0 <__riscv_save_0>
     85c:	0b000413          	li	s0,176
     860:	0b800913          	li	s2,184
     864:	4581                	li	a1,0
     866:	8522                	mv	a0,s0
     868:	3f79                	jal	806 <OLED_WR_Byte>
     86a:	4581                	li	a1,0
     86c:	4501                	li	a0,0
     86e:	3f61                	jal	806 <OLED_WR_Byte>
     870:	4581                	li	a1,0
     872:	4541                	li	a0,16
     874:	3f49                	jal	806 <OLED_WR_Byte>
     876:	08000493          	li	s1,128
     87a:	4585                	li	a1,1
     87c:	4501                	li	a0,0
     87e:	14fd                	addi	s1,s1,-1
     880:	3759                	jal	806 <OLED_WR_Byte>
     882:	fce5                	bnez	s1,87a <OLED_Clear+0x22>
     884:	0405                	addi	s0,s0,1
     886:	0ff47413          	andi	s0,s0,255
     88a:	fd241de3          	bne	s0,s2,864 <OLED_Clear+0xc>
     88e:	b259                	j	214 <__riscv_restore_0>

00000890 <OLED_SetCursorAddrese>:
     890:	961ff2ef          	jal	t0,1f0 <__riscv_save_0>
     894:	842a                	mv	s0,a0
     896:	fb058513          	addi	a0,a1,-80 # 40020fb0 <_eusrstack+0x20018fb0>
     89a:	0ff57513          	andi	a0,a0,255
     89e:	4581                	li	a1,0
     8a0:	379d                	jal	806 <OLED_WR_Byte>
     8a2:	00445513          	srli	a0,s0,0x4
     8a6:	4581                	li	a1,0
     8a8:	01056513          	ori	a0,a0,16
     8ac:	3fa9                	jal	806 <OLED_WR_Byte>
     8ae:	4581                	li	a1,0
     8b0:	00f47513          	andi	a0,s0,15
     8b4:	3f89                	jal	806 <OLED_WR_Byte>
     8b6:	bab9                	j	214 <__riscv_restore_0>

000008b8 <OLED_Init>:
     8b8:	939ff2ef          	jal	t0,1f0 <__riscv_save_0>
     8bc:	2311                	jal	dc0 <Driver_I2C2_Init>
     8be:	3e800513          	li	a0,1000
     8c2:	7b8000ef          	jal	ra,107a <Delay_Ms>
     8c6:	4581                	li	a1,0
     8c8:	0ae00513          	li	a0,174
     8cc:	3f2d                	jal	806 <OLED_WR_Byte>
     8ce:	4581                	li	a1,0
     8d0:	4501                	li	a0,0
     8d2:	3f15                	jal	806 <OLED_WR_Byte>
     8d4:	4581                	li	a1,0
     8d6:	4541                	li	a0,16
     8d8:	373d                	jal	806 <OLED_WR_Byte>
     8da:	4581                	li	a1,0
     8dc:	04000513          	li	a0,64
     8e0:	371d                	jal	806 <OLED_WR_Byte>
     8e2:	4581                	li	a1,0
     8e4:	08100513          	li	a0,129
     8e8:	3f39                	jal	806 <OLED_WR_Byte>
     8ea:	4581                	li	a1,0
     8ec:	0cf00513          	li	a0,207
     8f0:	3f19                	jal	806 <OLED_WR_Byte>
     8f2:	4581                	li	a1,0
     8f4:	0a100513          	li	a0,161
     8f8:	3739                	jal	806 <OLED_WR_Byte>
     8fa:	4581                	li	a1,0
     8fc:	0c800513          	li	a0,200
     900:	3719                	jal	806 <OLED_WR_Byte>
     902:	4581                	li	a1,0
     904:	0a600513          	li	a0,166
     908:	3dfd                	jal	806 <OLED_WR_Byte>
     90a:	4581                	li	a1,0
     90c:	0a800513          	li	a0,168
     910:	3ddd                	jal	806 <OLED_WR_Byte>
     912:	4581                	li	a1,0
     914:	03f00513          	li	a0,63
     918:	35fd                	jal	806 <OLED_WR_Byte>
     91a:	4581                	li	a1,0
     91c:	0d300513          	li	a0,211
     920:	35dd                	jal	806 <OLED_WR_Byte>
     922:	4581                	li	a1,0
     924:	4501                	li	a0,0
     926:	35c5                	jal	806 <OLED_WR_Byte>
     928:	4581                	li	a1,0
     92a:	0d500513          	li	a0,213
     92e:	3de1                	jal	806 <OLED_WR_Byte>
     930:	4581                	li	a1,0
     932:	08000513          	li	a0,128
     936:	3dc1                	jal	806 <OLED_WR_Byte>
     938:	4581                	li	a1,0
     93a:	0d900513          	li	a0,217
     93e:	35e1                	jal	806 <OLED_WR_Byte>
     940:	4581                	li	a1,0
     942:	0f100513          	li	a0,241
     946:	35c1                	jal	806 <OLED_WR_Byte>
     948:	4581                	li	a1,0
     94a:	0da00513          	li	a0,218
     94e:	3d65                	jal	806 <OLED_WR_Byte>
     950:	4581                	li	a1,0
     952:	4549                	li	a0,18
     954:	3d4d                	jal	806 <OLED_WR_Byte>
     956:	4581                	li	a1,0
     958:	0db00513          	li	a0,219
     95c:	356d                	jal	806 <OLED_WR_Byte>
     95e:	4581                	li	a1,0
     960:	04000513          	li	a0,64
     964:	354d                	jal	806 <OLED_WR_Byte>
     966:	4581                	li	a1,0
     968:	02000513          	li	a0,32
     96c:	3d69                	jal	806 <OLED_WR_Byte>
     96e:	4581                	li	a1,0
     970:	4509                	li	a0,2
     972:	3d51                	jal	806 <OLED_WR_Byte>
     974:	4581                	li	a1,0
     976:	08d00513          	li	a0,141
     97a:	3571                	jal	806 <OLED_WR_Byte>
     97c:	4581                	li	a1,0
     97e:	4551                	li	a0,20
     980:	3559                	jal	806 <OLED_WR_Byte>
     982:	4581                	li	a1,0
     984:	0a400513          	li	a0,164
     988:	3dbd                	jal	806 <OLED_WR_Byte>
     98a:	4581                	li	a1,0
     98c:	0a600513          	li	a0,166
     990:	3d9d                	jal	806 <OLED_WR_Byte>
     992:	4581                	li	a1,0
     994:	0af00513          	li	a0,175
     998:	35bd                	jal	806 <OLED_WR_Byte>
     99a:	3d7d                	jal	858 <OLED_Clear>
     99c:	4581                	li	a1,0
     99e:	4501                	li	a0,0
     9a0:	3dc5                	jal	890 <OLED_SetCursorAddrese>
     9a2:	873ff06f          	j	214 <__riscv_restore_0>

000009a6 <OLED_DisplayString>:
     9a6:	823ff2ef          	jal	t0,1c8 <__riscv_save_10>
     9aa:	6a85                	lui	s5,0x1
     9ac:	00158b13          	addi	s6,a1,1
     9b0:	6b85                	lui	s7,0x1
     9b2:	84aa                	mv	s1,a0
     9b4:	8c2e                	mv	s8,a1
     9b6:	89b2                	mv	s3,a2
     9b8:	893a                	mv	s2,a4
     9ba:	00165a13          	srli	s4,a2,0x1
     9be:	4401                	li	s0,0
     9c0:	740a8a93          	addi	s5,s5,1856 # 1740 <ChineseFont_16_16>
     9c4:	0ffb7b13          	andi	s6,s6,255
     9c8:	150b8b93          	addi	s7,s7,336 # 1150 <ASCII_8_16>
     9cc:	00094c83          	lbu	s9,0(s2)
     9d0:	000c9463          	bnez	s9,9d8 <OLED_DisplayString+0x32>
     9d4:	82dff06f          	j	200 <__riscv_restore_10>
     9d8:	1c81                	addi	s9,s9,-32
     9da:	0ffcfc93          	andi	s9,s9,255
     9de:	05e00793          	li	a5,94
     9e2:	85e2                	mv	a1,s8
     9e4:	8526                	mv	a0,s1
     9e6:	0597ea63          	bltu	a5,s9,a3a <OLED_DisplayString+0x94>
     9ea:	355d                	jal	890 <OLED_SetCursorAddrese>
     9ec:	004c9413          	slli	s0,s9,0x4
     9f0:	4d01                	li	s10,0
     9f2:	0ffd7793          	andi	a5,s10,255
     9f6:	0347e263          	bltu	a5,s4,a1a <OLED_DisplayString+0x74>
     9fa:	85da                	mv	a1,s6
     9fc:	8526                	mv	a0,s1
     9fe:	008a0d33          	add	s10,s4,s0
     a02:	3579                	jal	890 <OLED_SetCursorAddrese>
     a04:	4401                	li	s0,0
     a06:	0ff47793          	andi	a5,s0,255
     a0a:	0347e063          	bltu	a5,s4,a2a <OLED_DisplayString+0x84>
     a0e:	94d2                	add	s1,s1,s4
     a10:	0905                	addi	s2,s2,1
     a12:	0ff4f493          	andi	s1,s1,255
     a16:	8466                	mv	s0,s9
     a18:	bf55                	j	9cc <OLED_DisplayString+0x26>
     a1a:	008d07b3          	add	a5,s10,s0
     a1e:	97de                	add	a5,a5,s7
     a20:	2388                	lbu	a0,0(a5)
     a22:	4585                	li	a1,1
     a24:	0d05                	addi	s10,s10,1
     a26:	33c5                	jal	806 <OLED_WR_Byte>
     a28:	b7e9                	j	9f2 <OLED_DisplayString+0x4c>
     a2a:	01a407b3          	add	a5,s0,s10
     a2e:	97de                	add	a5,a5,s7
     a30:	2388                	lbu	a0,0(a5)
     a32:	4585                	li	a1,1
     a34:	0405                	addi	s0,s0,1
     a36:	3bc1                	jal	806 <OLED_WR_Byte>
     a38:	b7f9                	j	a06 <OLED_DisplayString+0x60>
     a3a:	3d99                	jal	890 <OLED_SetCursorAddrese>
     a3c:	00094783          	lbu	a5,0(s2)
     a40:	00194703          	lbu	a4,1(s2)
     a44:	07a2                	slli	a5,a5,0x8
     a46:	97ba                	add	a5,a5,a4
     a48:	07c2                	slli	a5,a5,0x10
     a4a:	6731                	lui	a4,0xc
     a4c:	83c1                	srli	a5,a5,0x10
     a4e:	6f770693          	addi	a3,a4,1783 # c6f7 <_data_lma+0xa937>
     a52:	24d78d63          	beq	a5,a3,cac <OLED_DisplayString+0x306>
     a56:	12f6ec63          	bltu	a3,a5,b8e <OLED_DisplayString+0x1e8>
     a5a:	66ad                	lui	a3,0xb
     a5c:	7a268613          	addi	a2,a3,1954 # b7a2 <_data_lma+0x99e2>
     a60:	24c78863          	beq	a5,a2,cb0 <OLED_DisplayString+0x30a>
     a64:	0af66163          	bltu	a2,a5,b06 <OLED_DisplayString+0x160>
     a68:	2ce68713          	addi	a4,a3,718
     a6c:	24e78463          	beq	a5,a4,cb4 <OLED_DisplayString+0x30e>
     a70:	04f76f63          	bltu	a4,a5,ace <OLED_DisplayString+0x128>
     a74:	1a368693          	addi	a3,a3,419
     a78:	24d78063          	beq	a5,a3,cb8 <OLED_DisplayString+0x312>
     a7c:	02f6ee63          	bltu	a3,a5,ab8 <OLED_DisplayString+0x112>
     a80:	6729                	lui	a4,0xa
     a82:	1e670713          	addi	a4,a4,486 # a1e6 <_data_lma+0x8426>
     a86:	22e78c63          	beq	a5,a4,cbe <OLED_DisplayString+0x318>
     a8a:	672d                	lui	a4,0xb
     a8c:	0dc70713          	addi	a4,a4,220 # b0dc <_data_lma+0x931c>
     a90:	22e78a63          	beq	a5,a4,cc4 <OLED_DisplayString+0x31e>
     a94:	00541c93          	slli	s9,s0,0x5
     a98:	4d01                	li	s10,0
     a9a:	2b3d1b63          	bne	s10,s3,d50 <OLED_DisplayString+0x3aa>
     a9e:	85da                	mv	a1,s6
     aa0:	8526                	mv	a0,s1
     aa2:	01998d33          	add	s10,s3,s9
     aa6:	33ed                	jal	890 <OLED_SetCursorAddrese>
     aa8:	4c81                	li	s9,0
     aaa:	2b3c9b63          	bne	s9,s3,d60 <OLED_DisplayString+0x3ba>
     aae:	94ce                	add	s1,s1,s3
     ab0:	0909                	addi	s2,s2,2
     ab2:	0ff4f493          	andi	s1,s1,255
     ab6:	bf19                	j	9cc <OLED_DisplayString+0x26>
     ab8:	672d                	lui	a4,0xb
     aba:	1b870693          	addi	a3,a4,440 # b1b8 <_data_lma+0x93f8>
     abe:	20d78663          	beq	a5,a3,cca <OLED_DisplayString+0x324>
     ac2:	1ed70713          	addi	a4,a4,493
     ac6:	fce797e3          	bne	a5,a4,a94 <OLED_DisplayString+0xee>
     aca:	446d                	li	s0,27
     acc:	b7e1                	j	a94 <OLED_DisplayString+0xee>
     ace:	4e668693          	addi	a3,a3,1254
     ad2:	1ed78e63          	beq	a5,a3,cce <OLED_DisplayString+0x328>
     ad6:	672d                	lui	a4,0xb
     ad8:	00f6ec63          	bltu	a3,a5,af0 <OLED_DisplayString+0x14a>
     adc:	3c970693          	addi	a3,a4,969 # b3c9 <_data_lma+0x9609>
     ae0:	1ed78a63          	beq	a5,a3,cd4 <OLED_DisplayString+0x32e>
     ae4:	4ab70713          	addi	a4,a4,1195
     ae8:	fae796e3          	bne	a5,a4,a94 <OLED_DisplayString+0xee>
     aec:	4451                	li	s0,20
     aee:	b75d                	j	a94 <OLED_DisplayString+0xee>
     af0:	6c870693          	addi	a3,a4,1736
     af4:	1ed78263          	beq	a5,a3,cd8 <OLED_DisplayString+0x332>
     af8:	6fe70713          	addi	a4,a4,1790
     afc:	f8e79ce3          	bne	a5,a4,a94 <OLED_DisplayString+0xee>
     b00:	02c00413          	li	s0,44
     b04:	bf41                	j	a94 <OLED_DisplayString+0xee>
     b06:	edd70693          	addi	a3,a4,-291
     b0a:	1cd78963          	beq	a5,a3,cdc <OLED_DisplayString+0x336>
     b0e:	04f6e063          	bltu	a3,a5,b4e <OLED_DisplayString+0x1a8>
     b12:	9a670713          	addi	a4,a4,-1626
     b16:	1ce78563          	beq	a5,a4,ce0 <OLED_DisplayString+0x33a>
     b1a:	00f76f63          	bltu	a4,a5,b38 <OLED_DisplayString+0x192>
     b1e:	672d                	lui	a4,0xb
     b20:	7fe70713          	addi	a4,a4,2046 # b7fe <_data_lma+0x9a3e>
     b24:	1ce78063          	beq	a5,a4,ce4 <OLED_DisplayString+0x33e>
     b28:	6731                	lui	a4,0xc
     b2a:	8df70713          	addi	a4,a4,-1825 # b8df <_data_lma+0x9b1f>
     b2e:	f6e793e3          	bne	a5,a4,a94 <OLED_DisplayString+0xee>
     b32:	02600413          	li	s0,38
     b36:	bfb9                	j	a94 <OLED_DisplayString+0xee>
     b38:	6731                	lui	a4,0xc
     b3a:	9fd70693          	addi	a3,a4,-1539 # b9fd <_data_lma+0x9c3d>
     b3e:	1ad78563          	beq	a5,a3,ce8 <OLED_DisplayString+0x342>
     b42:	dd370713          	addi	a4,a4,-557
     b46:	f4e797e3          	bne	a5,a4,a94 <OLED_DisplayString+0xee>
     b4a:	4429                	li	s0,10
     b4c:	b7a1                	j	a94 <OLED_DisplayString+0xee>
     b4e:	1f970713          	addi	a4,a4,505
     b52:	18e78e63          	beq	a5,a4,cee <OLED_DisplayString+0x348>
     b56:	00f76d63          	bltu	a4,a5,b70 <OLED_DisplayString+0x1ca>
     b5a:	6731                	lui	a4,0xc
     b5c:	fd870693          	addi	a3,a4,-40 # bfd8 <_data_lma+0xa218>
     b60:	18d78a63          	beq	a5,a3,cf4 <OLED_DisplayString+0x34e>
     b64:	1ac70713          	addi	a4,a4,428
     b68:	f2e796e3          	bne	a5,a4,a94 <OLED_DisplayString+0xee>
     b6c:	4425                	li	s0,9
     b6e:	b71d                	j	a94 <OLED_DisplayString+0xee>
     b70:	6731                	lui	a4,0xc
     b72:	4ea70693          	addi	a3,a4,1258 # c4ea <_data_lma+0xa72a>
     b76:	18d78163          	beq	a5,a3,cf8 <OLED_DisplayString+0x352>
     b7a:	6da70693          	addi	a3,a4,1754
     b7e:	18d78063          	beq	a5,a3,cfe <OLED_DisplayString+0x358>
     b82:	2e770713          	addi	a4,a4,743
     b86:	f0e797e3          	bne	a5,a4,a94 <OLED_DisplayString+0xee>
     b8a:	4479                	li	s0,30
     b8c:	b721                	j	a94 <OLED_DisplayString+0xee>
     b8e:	6735                	lui	a4,0xd
     b90:	ef170693          	addi	a3,a4,-271 # cef1 <_data_lma+0xb131>
     b94:	16d78763          	beq	a5,a3,d02 <OLED_DisplayString+0x35c>
     b98:	08f6e763          	bltu	a3,a5,c26 <OLED_DisplayString+0x280>
     b9c:	aaa70693          	addi	a3,a4,-1366
     ba0:	16d78363          	beq	a5,a3,d06 <OLED_DisplayString+0x360>
     ba4:	04f6e063          	bltu	a3,a5,be4 <OLED_DisplayString+0x23e>
     ba8:	9cf70713          	addi	a4,a4,-1585
     bac:	14e78f63          	beq	a5,a4,d0a <OLED_DisplayString+0x364>
     bb0:	00f76e63          	bltu	a4,a5,bcc <OLED_DisplayString+0x226>
     bb4:	6735                	lui	a4,0xd
     bb6:	8d570693          	addi	a3,a4,-1835 # c8d5 <_data_lma+0xab15>
     bba:	14d78a63          	beq	a5,a3,d0e <OLED_DisplayString+0x368>
     bbe:	8fd70713          	addi	a4,a4,-1795
     bc2:	ece799e3          	bne	a5,a4,a94 <OLED_DisplayString+0xee>
     bc6:	02d00413          	li	s0,45
     bca:	b5e9                	j	a94 <OLED_DisplayString+0xee>
     bcc:	6735                	lui	a4,0xd
     bce:	9e870693          	addi	a3,a4,-1560 # c9e8 <_data_lma+0xac28>
     bd2:	14d78163          	beq	a5,a3,d14 <OLED_DisplayString+0x36e>
     bd6:	aa770713          	addi	a4,a4,-1369
     bda:	eae79de3          	bne	a5,a4,a94 <OLED_DisplayString+0xee>
     bde:	02100413          	li	s0,33
     be2:	bd4d                	j	a94 <OLED_DisplayString+0xee>
     be4:	bcd70713          	addi	a4,a4,-1075
     be8:	12e78863          	beq	a5,a4,d18 <OLED_DisplayString+0x372>
     bec:	00f76e63          	bltu	a4,a5,c08 <OLED_DisplayString+0x262>
     bf0:	6735                	lui	a4,0xd
     bf2:	afd70693          	addi	a3,a4,-1283 # cafd <_data_lma+0xad3d>
     bf6:	12d78363          	beq	a5,a3,d1c <OLED_DisplayString+0x376>
     bfa:	bc470713          	addi	a4,a4,-1084
     bfe:	e8e79be3          	bne	a5,a4,a94 <OLED_DisplayString+0xee>
     c02:	02e00413          	li	s0,46
     c06:	b579                	j	a94 <OLED_DisplayString+0xee>
     c08:	6735                	lui	a4,0xd
     c0a:	ec270693          	addi	a3,a4,-318 # cec2 <_data_lma+0xb102>
     c0e:	10d78963          	beq	a5,a3,d20 <OLED_DisplayString+0x37a>
     c12:	ee570693          	addi	a3,a4,-283
     c16:	10d78763          	beq	a5,a3,d24 <OLED_DisplayString+0x37e>
     c1a:	df870713          	addi	a4,a4,-520
     c1e:	e6e79be3          	bne	a5,a4,a94 <OLED_DisplayString+0xee>
     c22:	4475                	li	s0,29
     c24:	bd85                	j	a94 <OLED_DisplayString+0xee>
     c26:	2bb70693          	addi	a3,a4,699
     c2a:	10d78063          	beq	a5,a3,d2a <OLED_DisplayString+0x384>
     c2e:	02f6ef63          	bltu	a3,a5,c6c <OLED_DisplayString+0x2c6>
     c32:	fde70713          	addi	a4,a4,-34
     c36:	0ee78d63          	beq	a5,a4,d30 <OLED_DisplayString+0x38a>
     c3a:	00f76d63          	bltu	a4,a5,c54 <OLED_DisplayString+0x2ae>
     c3e:	6735                	lui	a4,0xd
     c40:	fa270693          	addi	a3,a4,-94 # cfa2 <_data_lma+0xb1e2>
     c44:	0ed78863          	beq	a5,a3,d34 <OLED_DisplayString+0x38e>
     c48:	fc270713          	addi	a4,a4,-62
     c4c:	e4e794e3          	bne	a5,a4,a94 <OLED_DisplayString+0xee>
     c50:	443d                	li	s0,15
     c52:	b589                	j	a94 <OLED_DisplayString+0xee>
     c54:	6735                	lui	a4,0xd
     c56:	0c570693          	addi	a3,a4,197 # d0c5 <_data_lma+0xb305>
     c5a:	0ed78063          	beq	a5,a3,d3a <OLED_DisplayString+0x394>
     c5e:	0c770713          	addi	a4,a4,199
     c62:	e2e799e3          	bne	a5,a4,a94 <OLED_DisplayString+0xee>
     c66:	02800413          	li	s0,40
     c6a:	b52d                	j	a94 <OLED_DisplayString+0xee>
     c6c:	6c370713          	addi	a4,a4,1731
     c70:	0ce78763          	beq	a5,a4,d3e <OLED_DisplayString+0x398>
     c74:	00f76d63          	bltu	a4,a5,c8e <OLED_DisplayString+0x2e8>
     c78:	6735                	lui	a4,0xd
     c7a:	4c270693          	addi	a3,a4,1218 # d4c2 <_data_lma+0xb702>
     c7e:	0cd78263          	beq	a5,a3,d42 <OLED_DisplayString+0x39c>
     c82:	6b570713          	addi	a4,a4,1717
     c86:	e0e797e3          	bne	a5,a4,a94 <OLED_DisplayString+0xee>
     c8a:	4445                	li	s0,17
     c8c:	b521                	j	a94 <OLED_DisplayString+0xee>
     c8e:	6735                	lui	a4,0xd
     c90:	6dc70693          	addi	a3,a4,1756 # d6dc <_data_lma+0xb91c>
     c94:	0ad78a63          	beq	a5,a3,d48 <OLED_DisplayString+0x3a2>
     c98:	7dc70693          	addi	a3,a4,2012
     c9c:	0ad78863          	beq	a5,a3,d4c <OLED_DisplayString+0x3a6>
     ca0:	6c670713          	addi	a4,a4,1734
     ca4:	dee798e3          	bne	a5,a4,a94 <OLED_DisplayString+0xee>
     ca8:	4461                	li	s0,24
     caa:	b3ed                	j	a94 <OLED_DisplayString+0xee>
     cac:	4435                	li	s0,13
     cae:	b3dd                	j	a94 <OLED_DisplayString+0xee>
     cb0:	441d                	li	s0,7
     cb2:	b3cd                	j	a94 <OLED_DisplayString+0xee>
     cb4:	4465                	li	s0,25
     cb6:	bbf9                	j	a94 <OLED_DisplayString+0xee>
     cb8:	02300413          	li	s0,35
     cbc:	bbe1                	j	a94 <OLED_DisplayString+0xee>
     cbe:	02700413          	li	s0,39
     cc2:	bbc9                	j	a94 <OLED_DisplayString+0xee>
     cc4:	02200413          	li	s0,34
     cc8:	b3f1                	j	a94 <OLED_DisplayString+0xee>
     cca:	4471                	li	s0,28
     ccc:	b3e1                	j	a94 <OLED_DisplayString+0xee>
     cce:	02400413          	li	s0,36
     cd2:	b3c9                	j	a94 <OLED_DisplayString+0xee>
     cd4:	4415                	li	s0,5
     cd6:	bb7d                	j	a94 <OLED_DisplayString+0xee>
     cd8:	4409                	li	s0,2
     cda:	bb6d                	j	a94 <OLED_DisplayString+0xee>
     cdc:	4411                	li	s0,4
     cde:	bb5d                	j	a94 <OLED_DisplayString+0xee>
     ce0:	4419                	li	s0,6
     ce2:	bb4d                	j	a94 <OLED_DisplayString+0xee>
     ce4:	442d                	li	s0,11
     ce6:	b37d                	j	a94 <OLED_DisplayString+0xee>
     ce8:	02500413          	li	s0,37
     cec:	b365                	j	a94 <OLED_DisplayString+0xee>
     cee:	03000413          	li	s0,48
     cf2:	b34d                	j	a94 <OLED_DisplayString+0xee>
     cf4:	445d                	li	s0,23
     cf6:	bb79                	j	a94 <OLED_DisplayString+0xee>
     cf8:	03100413          	li	s0,49
     cfc:	bb61                	j	a94 <OLED_DisplayString+0xee>
     cfe:	4459                	li	s0,22
     d00:	bb51                	j	a94 <OLED_DisplayString+0xee>
     d02:	4431                	li	s0,12
     d04:	bb41                	j	a94 <OLED_DisplayString+0xee>
     d06:	4405                	li	s0,1
     d08:	b371                	j	a94 <OLED_DisplayString+0xee>
     d0a:	4439                	li	s0,14
     d0c:	b361                	j	a94 <OLED_DisplayString+0xee>
     d0e:	02a00413          	li	s0,42
     d12:	b349                	j	a94 <OLED_DisplayString+0xee>
     d14:	4449                	li	s0,18
     d16:	bbbd                	j	a94 <OLED_DisplayString+0xee>
     d18:	4421                	li	s0,8
     d1a:	bbad                	j	a94 <OLED_DisplayString+0xee>
     d1c:	440d                	li	s0,3
     d1e:	bb9d                	j	a94 <OLED_DisplayString+0xee>
     d20:	4401                	li	s0,0
     d22:	bb8d                	j	a94 <OLED_DisplayString+0xee>
     d24:	02f00413          	li	s0,47
     d28:	b3b5                	j	a94 <OLED_DisplayString+0xee>
     d2a:	02b00413          	li	s0,43
     d2e:	b39d                	j	a94 <OLED_DisplayString+0xee>
     d30:	4441                	li	s0,16
     d32:	b38d                	j	a94 <OLED_DisplayString+0xee>
     d34:	02000413          	li	s0,32
     d38:	bbb1                	j	a94 <OLED_DisplayString+0xee>
     d3a:	447d                	li	s0,31
     d3c:	bba1                	j	a94 <OLED_DisplayString+0xee>
     d3e:	444d                	li	s0,19
     d40:	bb91                	j	a94 <OLED_DisplayString+0xee>
     d42:	03200413          	li	s0,50
     d46:	b3b9                	j	a94 <OLED_DisplayString+0xee>
     d48:	4455                	li	s0,21
     d4a:	b3a9                	j	a94 <OLED_DisplayString+0xee>
     d4c:	4469                	li	s0,26
     d4e:	b399                	j	a94 <OLED_DisplayString+0xee>
     d50:	019d07b3          	add	a5,s10,s9
     d54:	97d6                	add	a5,a5,s5
     d56:	2388                	lbu	a0,0(a5)
     d58:	4585                	li	a1,1
     d5a:	0d05                	addi	s10,s10,1
     d5c:	346d                	jal	806 <OLED_WR_Byte>
     d5e:	bb35                	j	a9a <OLED_DisplayString+0xf4>
     d60:	01ac87b3          	add	a5,s9,s10
     d64:	97d6                	add	a5,a5,s5
     d66:	2388                	lbu	a0,0(a5)
     d68:	4585                	li	a1,1
     d6a:	0c85                	addi	s9,s9,1
     d6c:	3c69                	jal	806 <OLED_WR_Byte>
     d6e:	bb35                	j	aaa <OLED_DisplayString+0x104>

00000d70 <OLED_Menu_Display>:
     d70:	c80ff2ef          	jal	t0,1f0 <__riscv_save_0>
     d74:	00001737          	lui	a4,0x1
     d78:	10c70713          	addi	a4,a4,268 # 110c <USART_Printf_Init+0x5c>
     d7c:	46c1                	li	a3,16
     d7e:	4641                	li	a2,16
     d80:	4581                	li	a1,0
     d82:	4501                	li	a0,0
     d84:	310d                	jal	9a6 <OLED_DisplayString>
     d86:	00001737          	lui	a4,0x1
     d8a:	11c70713          	addi	a4,a4,284 # 111c <USART_Printf_Init+0x6c>
     d8e:	46c1                	li	a3,16
     d90:	4641                	li	a2,16
     d92:	4589                	li	a1,2
     d94:	4501                	li	a0,0
     d96:	3901                	jal	9a6 <OLED_DisplayString>
     d98:	00001737          	lui	a4,0x1
     d9c:	12c70713          	addi	a4,a4,300 # 112c <USART_Printf_Init+0x7c>
     da0:	46c1                	li	a3,16
     da2:	4641                	li	a2,16
     da4:	4591                	li	a1,4
     da6:	4501                	li	a0,0
     da8:	3efd                	jal	9a6 <OLED_DisplayString>
     daa:	00001737          	lui	a4,0x1
     dae:	13c70713          	addi	a4,a4,316 # 113c <USART_Printf_Init+0x8c>
     db2:	46c1                	li	a3,16
     db4:	4641                	li	a2,16
     db6:	4599                	li	a1,6
     db8:	4501                	li	a0,0
     dba:	36f5                	jal	9a6 <OLED_DisplayString>
     dbc:	c58ff06f          	j	214 <__riscv_restore_0>

00000dc0 <Driver_I2C2_Init>:
     dc0:	40021737          	lui	a4,0x40021
     dc4:	4f1c                	lw	a5,24(a4)
     dc6:	770006b7          	lui	a3,0x77000
     dca:	0087e793          	ori	a5,a5,8
     dce:	cf1c                	sw	a5,24(a4)
     dd0:	400117b7          	lui	a5,0x40011
     dd4:	c007a703          	lw	a4,-1024(a5) # 40010c00 <_eusrstack+0x20008c00>
     dd8:	8f55                	or	a4,a4,a3
     dda:	c0e7a023          	sw	a4,-1024(a5)
     dde:	c007a703          	lw	a4,-1024(a5)
     de2:	780006b7          	lui	a3,0x78000
     de6:	16fd                	addi	a3,a3,-1
     de8:	8f75                	and	a4,a4,a3
     dea:	c0e7a023          	sw	a4,-1024(a5)
     dee:	8082                	ret

00000df0 <Driver_I2C2_Start>:
     df0:	c00ff2ef          	jal	t0,1f0 <__riscv_save_0>
     df4:	40011437          	lui	s0,0x40011
     df8:	c0c42783          	lw	a5,-1012(s0) # 40010c0c <_eusrstack+0x20008c0c>
     dfc:	4529                	li	a0,10
     dfe:	c0040413          	addi	s0,s0,-1024
     e02:	0807e793          	ori	a5,a5,128
     e06:	c45c                	sw	a5,12(s0)
     e08:	445c                	lw	a5,12(s0)
     e0a:	0407e793          	ori	a5,a5,64
     e0e:	c45c                	sw	a5,12(s0)
     e10:	2c15                	jal	1044 <Delay_Us>
     e12:	445c                	lw	a5,12(s0)
     e14:	4529                	li	a0,10
     e16:	f7f7f793          	andi	a5,a5,-129
     e1a:	c45c                	sw	a5,12(s0)
     e1c:	2425                	jal	1044 <Delay_Us>
     e1e:	bf6ff06f          	j	214 <__riscv_restore_0>

00000e22 <Driver_I2C2_Stop>:
     e22:	bceff2ef          	jal	t0,1f0 <__riscv_save_0>
     e26:	40011437          	lui	s0,0x40011
     e2a:	c0c42783          	lw	a5,-1012(s0) # 40010c0c <_eusrstack+0x20008c0c>
     e2e:	4529                	li	a0,10
     e30:	c0040413          	addi	s0,s0,-1024
     e34:	0407e793          	ori	a5,a5,64
     e38:	c45c                	sw	a5,12(s0)
     e3a:	445c                	lw	a5,12(s0)
     e3c:	f7f7f793          	andi	a5,a5,-129
     e40:	c45c                	sw	a5,12(s0)
     e42:	2409                	jal	1044 <Delay_Us>
     e44:	445c                	lw	a5,12(s0)
     e46:	4529                	li	a0,10
     e48:	0807e793          	ori	a5,a5,128
     e4c:	c45c                	sw	a5,12(s0)
     e4e:	2add                	jal	1044 <Delay_Us>
     e50:	bc4ff06f          	j	214 <__riscv_restore_0>

00000e54 <Driver_I2C2_Ack>:
     e54:	b9cff2ef          	jal	t0,1f0 <__riscv_save_0>
     e58:	40011437          	lui	s0,0x40011
     e5c:	c0c42783          	lw	a5,-1012(s0) # 40010c0c <_eusrstack+0x20008c0c>
     e60:	4529                	li	a0,10
     e62:	c0040413          	addi	s0,s0,-1024
     e66:	0807e793          	ori	a5,a5,128
     e6a:	c45c                	sw	a5,12(s0)
     e6c:	445c                	lw	a5,12(s0)
     e6e:	fbf7f793          	andi	a5,a5,-65
     e72:	c45c                	sw	a5,12(s0)
     e74:	2ac1                	jal	1044 <Delay_Us>
     e76:	445c                	lw	a5,12(s0)
     e78:	4529                	li	a0,10
     e7a:	f7f7f793          	andi	a5,a5,-129
     e7e:	c45c                	sw	a5,12(s0)
     e80:	22d1                	jal	1044 <Delay_Us>
     e82:	445c                	lw	a5,12(s0)
     e84:	4529                	li	a0,10
     e86:	0407e793          	ori	a5,a5,64
     e8a:	c45c                	sw	a5,12(s0)
     e8c:	2a65                	jal	1044 <Delay_Us>
     e8e:	445c                	lw	a5,12(s0)
     e90:	4529                	li	a0,10
     e92:	fbf7f793          	andi	a5,a5,-65
     e96:	c45c                	sw	a5,12(s0)
     e98:	2275                	jal	1044 <Delay_Us>
     e9a:	445c                	lw	a5,12(s0)
     e9c:	4529                	li	a0,10
     e9e:	0807e793          	ori	a5,a5,128
     ea2:	c45c                	sw	a5,12(s0)
     ea4:	2245                	jal	1044 <Delay_Us>
     ea6:	b6eff06f          	j	214 <__riscv_restore_0>

00000eaa <Driver_I2C_SendByte>:
     eaa:	b2cff2ef          	jal	t0,1d6 <__riscv_save_4>
     eae:	892a                	mv	s2,a0
     eb0:	44a1                	li	s1,8
     eb2:	400119b7          	lui	s3,0x40011
     eb6:	c0098413          	addi	s0,s3,-1024 # 40010c00 <_eusrstack+0x20008c00>
     eba:	445c                	lw	a5,12(s0)
     ebc:	4529                	li	a0,10
     ebe:	f7f7f793          	andi	a5,a5,-129
     ec2:	c45c                	sw	a5,12(s0)
     ec4:	445c                	lw	a5,12(s0)
     ec6:	fbf7f793          	andi	a5,a5,-65
     eca:	c45c                	sw	a5,12(s0)
     ecc:	2aa5                	jal	1044 <Delay_Us>
     ece:	01891793          	slli	a5,s2,0x18
     ed2:	87e1                	srai	a5,a5,0x18
     ed4:	0407d363          	bgez	a5,f1a <Driver_I2C_SendByte+0x70>
     ed8:	445c                	lw	a5,12(s0)
     eda:	0807e793          	ori	a5,a5,128
     ede:	c45c                	sw	a5,12(s0)
     ee0:	4529                	li	a0,10
     ee2:	228d                	jal	1044 <Delay_Us>
     ee4:	c0c9a783          	lw	a5,-1012(s3)
     ee8:	4529                	li	a0,10
     eea:	14fd                	addi	s1,s1,-1
     eec:	0407e793          	ori	a5,a5,64
     ef0:	c0f9a623          	sw	a5,-1012(s3)
     ef4:	2a81                	jal	1044 <Delay_Us>
     ef6:	c0c9a783          	lw	a5,-1012(s3)
     efa:	4529                	li	a0,10
     efc:	0906                	slli	s2,s2,0x1
     efe:	fbf7f793          	andi	a5,a5,-65
     f02:	c0f9a623          	sw	a5,-1012(s3)
     f06:	0ff4f493          	andi	s1,s1,255
     f0a:	c0098413          	addi	s0,s3,-1024
     f0e:	2a1d                	jal	1044 <Delay_Us>
     f10:	0ff97913          	andi	s2,s2,255
     f14:	f0cd                	bnez	s1,eb6 <Driver_I2C_SendByte+0xc>
     f16:	af4ff06f          	j	20a <__riscv_restore_4>
     f1a:	445c                	lw	a5,12(s0)
     f1c:	f7f7f793          	andi	a5,a5,-129
     f20:	bf7d                	j	ede <Driver_I2C_SendByte+0x34>

00000f22 <EXTI15_10_IRQHandler>:
     f22:	400107b7          	lui	a5,0x40010
     f26:	4147a703          	lw	a4,1044(a5) # 40010414 <_eusrstack+0x20008414>
     f2a:	40076713          	ori	a4,a4,1024
     f2e:	40e7aa23          	sw	a4,1044(a5)
     f32:	400127b7          	lui	a5,0x40012
     f36:	80078793          	addi	a5,a5,-2048 # 40011800 <_eusrstack+0x20009800>
     f3a:	479c                	lw	a5,8(a5)
     f3c:	4007f793          	andi	a5,a5,1024
     f40:	c799                	beqz	a5,f4e <EXTI15_10_IRQHandler+0x2c>
     f42:	aaeff2ef          	jal	t0,1f0 <__riscv_save_0>
     f46:	4505                	li	a0,1
     f48:	2035                	jal	f74 <Drviver_LED_Toggle>
     f4a:	acaff06f          	j	214 <__riscv_restore_0>
     f4e:	8082                	ret

00000f50 <Drviver_LED_On>:
     f50:	400117b7          	lui	a5,0x40011
     f54:	80c7a703          	lw	a4,-2036(a5) # 4001080c <_eusrstack+0x2000880c>
     f58:	fff54513          	not	a0,a0
     f5c:	8d79                	and	a0,a0,a4
     f5e:	80a7a623          	sw	a0,-2036(a5)
     f62:	8082                	ret

00000f64 <Drviver_LED_Off>:
     f64:	400117b7          	lui	a5,0x40011
     f68:	80c7a703          	lw	a4,-2036(a5) # 4001080c <_eusrstack+0x2000880c>
     f6c:	8d59                	or	a0,a0,a4
     f6e:	80a7a623          	sw	a0,-2036(a5)
     f72:	8082                	ret

00000f74 <Drviver_LED_Toggle>:
     f74:	a7cff2ef          	jal	t0,1f0 <__riscv_save_0>
     f78:	400117b7          	lui	a5,0x40011
     f7c:	80078793          	addi	a5,a5,-2048 # 40010800 <_eusrstack+0x20008800>
     f80:	479c                	lw	a5,8(a5)
     f82:	8fe9                	and	a5,a5,a0
     f84:	e781                	bnez	a5,f8c <Drviver_LED_Toggle+0x18>
     f86:	3ff9                	jal	f64 <Drviver_LED_Off>
     f88:	a8cff06f          	j	214 <__riscv_restore_0>
     f8c:	37d1                	jal	f50 <Drviver_LED_On>
     f8e:	bfed                	j	f88 <Drviver_LED_Toggle+0x14>

00000f90 <Driver_TIM1_Stop>:
     f90:	40013737          	lui	a4,0x40013
     f94:	c0075783          	lhu	a5,-1024(a4) # 40012c00 <_eusrstack+0x2000ac00>
     f98:	07c2                	slli	a5,a5,0x10
     f9a:	83c1                	srli	a5,a5,0x10
     f9c:	9bf9                	andi	a5,a5,-2
     f9e:	07c2                	slli	a5,a5,0x10
     fa0:	83c1                	srli	a5,a5,0x10
     fa2:	c0f71023          	sh	a5,-1024(a4)
     fa6:	8082                	ret

00000fa8 <TIM1_UP_IRQHandler>:
     fa8:	a48ff2ef          	jal	t0,1f0 <__riscv_save_0>
     fac:	40013737          	lui	a4,0x40013
     fb0:	c1075783          	lhu	a5,-1008(a4) # 40012c10 <_eusrstack+0x2000ac10>
     fb4:	07c2                	slli	a5,a5,0x10
     fb6:	83c1                	srli	a5,a5,0x10
     fb8:	9bf9                	andi	a5,a5,-2
     fba:	07c2                	slli	a5,a5,0x10
     fbc:	83c1                	srli	a5,a5,0x10
     fbe:	c0f71823          	sh	a5,-1008(a4)
     fc2:	37f9                	jal	f90 <Driver_TIM1_Stop>
     fc4:	a50ff06f          	j	214 <__riscv_restore_0>

00000fc8 <TIM6_IRQHandler>:
     fc8:	40001737          	lui	a4,0x40001
     fcc:	2b1e                	lhu	a5,16(a4)
     fce:	07c2                	slli	a5,a5,0x10
     fd0:	83c1                	srli	a5,a5,0x10
     fd2:	9bf9                	andi	a5,a5,-2
     fd4:	07c2                	slli	a5,a5,0x10
     fd6:	83c1                	srli	a5,a5,0x10
     fd8:	ab1e                	sh	a5,16(a4)
     fda:	8082                	ret

00000fdc <USART1_IRQHandler>:
     fdc:	400147b7          	lui	a5,0x40014
     fe0:	8007d703          	lhu	a4,-2048(a5) # 40013800 <_eusrstack+0x2000b800>
     fe4:	80078693          	addi	a3,a5,-2048
     fe8:	02077713          	andi	a4,a4,32
     fec:	cf01                	beqz	a4,1004 <USART1_IRQHandler+0x28>
     fee:	80d18713          	addi	a4,gp,-2035 # 2000002d <len>
     ff2:	22d2                	lhu	a2,4(a3)
     ff4:	2314                	lbu	a3,0(a4)
     ff6:	81418793          	addi	a5,gp,-2028 # 20000034 <buff>
     ffa:	97b6                	add	a5,a5,a3
     ffc:	0685                	addi	a3,a3,1
     ffe:	a390                	sb	a2,0(a5)
    1000:	a314                	sb	a3,0(a4)
    1002:	8082                	ret
    1004:	8007d703          	lhu	a4,-2048(a5)
    1008:	8b41                	andi	a4,a4,16
    100a:	c719                	beqz	a4,1018 <USART1_IRQHandler+0x3c>
    100c:	8007d783          	lhu	a5,-2048(a5)
    1010:	22de                	lhu	a5,4(a3)
    1012:	4705                	li	a4,1
    1014:	80e18623          	sb	a4,-2036(gp) # 2000002c <isToSend>
    1018:	8082                	ret

0000101a <Delay_Init>:
    101a:	200007b7          	lui	a5,0x20000
    101e:	0207a783          	lw	a5,32(a5) # 20000020 <SystemCoreClock>
    1022:	007a1737          	lui	a4,0x7a1
    1026:	20070713          	addi	a4,a4,512 # 7a1200 <_data_lma+0x79f440>
    102a:	02e7d7b3          	divu	a5,a5,a4
    102e:	0ff7f793          	andi	a5,a5,255
    1032:	80f18823          	sb	a5,-2032(gp) # 20000030 <p_us>
    1036:	3e800713          	li	a4,1000
    103a:	02e787b3          	mul	a5,a5,a4
    103e:	80f19723          	sh	a5,-2034(gp) # 2000002e <p_ms>
    1042:	8082                	ret

00001044 <Delay_Us>:
    1044:	e000f7b7          	lui	a5,0xe000f
    1048:	43d8                	lw	a4,4(a5)
    104a:	4681                	li	a3,0
    104c:	9b79                	andi	a4,a4,-2
    104e:	c3d8                	sw	a4,4(a5)
    1050:	8101c703          	lbu	a4,-2032(gp) # 20000030 <p_us>
    1054:	02a70633          	mul	a2,a4,a0
    1058:	cb90                	sw	a2,16(a5)
    105a:	cbd4                	sw	a3,20(a5)
    105c:	4398                	lw	a4,0(a5)
    105e:	01076713          	ori	a4,a4,16
    1062:	c398                	sw	a4,0(a5)
    1064:	4398                	lw	a4,0(a5)
    1066:	02176713          	ori	a4,a4,33
    106a:	c398                	sw	a4,0(a5)
    106c:	43d8                	lw	a4,4(a5)
    106e:	8b05                	andi	a4,a4,1
    1070:	df75                	beqz	a4,106c <Delay_Us+0x28>
    1072:	4398                	lw	a4,0(a5)
    1074:	9b79                	andi	a4,a4,-2
    1076:	c398                	sw	a4,0(a5)
    1078:	8082                	ret

0000107a <Delay_Ms>:
    107a:	e000f7b7          	lui	a5,0xe000f
    107e:	43d8                	lw	a4,4(a5)
    1080:	4681                	li	a3,0
    1082:	9b79                	andi	a4,a4,-2
    1084:	c3d8                	sw	a4,4(a5)
    1086:	80e1d703          	lhu	a4,-2034(gp) # 2000002e <p_ms>
    108a:	02a70633          	mul	a2,a4,a0
    108e:	cb90                	sw	a2,16(a5)
    1090:	cbd4                	sw	a3,20(a5)
    1092:	4398                	lw	a4,0(a5)
    1094:	01076713          	ori	a4,a4,16
    1098:	c398                	sw	a4,0(a5)
    109a:	4398                	lw	a4,0(a5)
    109c:	02176713          	ori	a4,a4,33
    10a0:	c398                	sw	a4,0(a5)
    10a2:	43d8                	lw	a4,4(a5)
    10a4:	8b05                	andi	a4,a4,1
    10a6:	df75                	beqz	a4,10a2 <Delay_Ms+0x28>
    10a8:	4398                	lw	a4,0(a5)
    10aa:	9b79                	andi	a4,a4,-2
    10ac:	c398                	sw	a4,0(a5)
    10ae:	8082                	ret

000010b0 <USART_Printf_Init>:
    10b0:	940ff2ef          	jal	t0,1f0 <__riscv_save_0>
    10b4:	842a                	mv	s0,a0
    10b6:	6511                	lui	a0,0x4
    10b8:	1101                	addi	sp,sp,-32
    10ba:	4585                	li	a1,1
    10bc:	0511                	addi	a0,a0,4
    10be:	e88ff0ef          	jal	ra,746 <RCC_APB2PeriphClockCmd>
    10c2:	20000793          	li	a5,512
    10c6:	827c                	sh	a5,4(sp)
    10c8:	40011537          	lui	a0,0x40011
    10cc:	478d                	li	a5,3
    10ce:	c43e                	sw	a5,8(sp)
    10d0:	004c                	addi	a1,sp,4
    10d2:	47e1                	li	a5,24
    10d4:	80050513          	addi	a0,a0,-2048 # 40010800 <_eusrstack+0x20008800>
    10d8:	c63e                	sw	a5,12(sp)
    10da:	c30ff0ef          	jal	ra,50a <GPIO_Init>
    10de:	c822                	sw	s0,16(sp)
    10e0:	40014437          	lui	s0,0x40014
    10e4:	000807b7          	lui	a5,0x80
    10e8:	080c                	addi	a1,sp,16
    10ea:	80040513          	addi	a0,s0,-2048 # 40013800 <_eusrstack+0x2000b800>
    10ee:	cc3e                	sw	a5,24(sp)
    10f0:	ca02                	sw	zero,20(sp)
    10f2:	00011e23          	sh	zero,28(sp)
    10f6:	e6eff0ef          	jal	ra,764 <USART_Init>
    10fa:	4585                	li	a1,1
    10fc:	80040513          	addi	a0,s0,-2048
    1100:	ef0ff0ef          	jal	ra,7f0 <USART_Cmd>
    1104:	6105                	addi	sp,sp,32
    1106:	90eff06f          	j	214 <__riscv_restore_0>
    110a:	0000                	unimp
    110c:	44454c4f          	0x44454c4f
    1110:	b220                	sb	s0,3(a2)
    1112:	cace                	sw	s3,84(sp)
    1114:	c9fd                	beqz	a1,120a <ASCII_8_16+0xba>
    1116:	d6e8                	sw	a0,108(a3)
    1118:	000000c3          	fmadd.s	ft1,ft0,ft0,ft0,rne
    111c:	6f44                	flw	fs1,28(a4)
    111e:	7920                	flw	fs0,112(a0)
    1120:	6b20756f          	jal	a0,87d2 <_data_lma+0x6a12>
    1124:	6e776e6f          	jal	t3,7800a <_data_lma+0x7624a>
    1128:	3f20                	lbu	s0,27(a4)
    112a:	0000                	unimp
    112c:	2049                	jal	11ae <ASCII_8_16+0x5e>
    112e:	4f4c                	lw	a1,28(a4)
    1130:	4556                	lw	a0,84(sp)
    1132:	5920                	lw	s0,112(a0)
    1134:	2120554f          	fnmadd.s	fa0,ft0,fs2,ft4,unknown
    1138:	0000                	unimp
    113a:	0000                	unimp
    113c:	2749                	jal	18be <ChineseFont_16_16+0x17e>
    113e:	206d                	jal	11e8 <ASCII_8_16+0x98>
    1140:	73206f73          	csrrsi	t5,0x732,0
    1144:	7972726f          	jal	tp,290da <_data_lma+0x2731a>
    1148:	2120                	lbu	s0,2(a0)
    114a:	2121                	jal	1552 <ASCII_8_16+0x402>
    114c:	0000                	unimp
	...

00001150 <ASCII_8_16>:
	...
    1160:	0000 f800 0000 0000 0000 3300 0000 0000     ...........3....
    1170:	1000 020c 0c10 0002 0000 0000 0000 0000     ................
    1180:	4000 78c0 c040 0078 0400 043f 3f04 0004     .@.x@.x...?..?..
    1190:	7000 8888 08fc 0030 1800 2020 21ff 001e     .p....0...  .!..
    11a0:	08f0 80f0 1860 0000 3100 030c 211e 001e     ....`....1...!..
    11b0:	f000 8808 0070 0000 211e 2c23 2719 1021     ....p....!#,.'!.
    11c0:	1200 000e 0000 0000 0000 0000 0000 0000     ................
    11d0:	0000 e000 0418 0002 0000 0700 2018 0040     ............. @.
    11e0:	0200 1804 00e0 0000 4000 1820 0007 0000     .........@ .....
    11f0:	4040 f080 4080 0040 0202 0f01 0201 0002     @@...@@.........
    1200:	0000 0000 00e0 0000 0100 0101 010f 0101     ................
	...
    1218:	9000 0070 0000 0000 0000 0000 0000 0000     ..p.............
    1228:	0100 0101 0101 0001 0000 0000 0000 0000     ................
    1238:	3000 0030 0000 0000 0000 0000 38c0 0004     .00..........8..
    1248:	6000 0718 0000 0000 e000 0810 1008 00e0     .`..............
    1258:	0f00 2010 1020 000f 0000 1010 00f8 0000     ...  ...........
    1268:	0000 2020 203f 0020 7000 0808 0808 00f0     ..  ?  ..p......
    1278:	3000 2428 2122 0030 3000 0808 8808 0070     .0($"!0..0....p.
    1288:	1800 2120 2221 001c 0000 4080 f830 0000     .. !!".....@0...
    1298:	0600 2405 3f24 2424 f800 8888 0888 0008     ...$$?$$........
    12a8:	1900 2020 1120 000e e000 8810 9088 0000     ..   ...........
    12b8:	0f00 2011 2020 001f 1800 0808 6888 0018     ...   .......h..
    12c8:	0000 3e00 0001 0000 7000 0888 8808 0070     ...>.....p....p.
    12d8:	1c00 2122 2221 001c f000 0808 1008 00e0     .."!!"..........
    12e8:	0100 2212 1122 000f 0000 c000 00c0 0000     ...""...........
    12f8:	0000 3000 0030 0000 0000 8000 0000 0000     ...00...........
    1308:	0000 e000 0000 0000 0000 4080 1020 0008     ...........@ ...
    1318:	0100 0402 1008 0020 4000 4040 4040 0040     ...... ..@@@@@@.
    1328:	0200 0202 0202 0002 0800 2010 8040 0000     ........... @...
    1338:	2000 0810 0204 0001 7000 0848 8808 0070     . .......pH...p.
    1348:	0000 3000 0037 0000 30c0 28c8 10e8 00e0     ...07....0.(....
    1358:	1807 2827 282f 0017 0000 38c0 00e0 0000     ..'(/(.....8....
    1368:	3c20 0223 2702 2038 f808 8888 7088 0000      <#..'8 .....p..
    1378:	3f20 2020 1120 000e 30c0 0808 0808 0038      ?   ....0....8.
    1388:	1807 2020 1020 0008 f808 0808 1008 00e0     ..   ...........
    1398:	3f20 2020 1020 000f f808 8888 08e8 0010      ?   ...........
    13a8:	3f20 2020 2023 0018 f808 8888 08e8 0010      ?  # ..........
    13b8:	3f20 0020 0003 0000 30c0 0808 3808 0000      ? ......0...8..
    13c8:	1807 2020 1e22 0002 f808 0008 0800 08f8     ..  "...........
    13d8:	3f20 0121 2101 203f 0800 f808 0808 0000      ?!..!? ........
    13e8:	2000 3f20 2020 0000 0000 0808 08f8 0008     .  ?  ..........
    13f8:	80c0 8080 007f 0000 f808 c088 1828 0008     ............(...
    1408:	3f20 0120 3826 0020 f808 0008 0000 0000      ? .&8 .........
    1418:	3f20 2020 2020 0030 f808 00f8 f8f8 0008      ?    0.........
    1428:	3f20 3e01 3f01 0020 f808 c030 0800 08f8      ?.>.? ...0.....
    1438:	3f20 0020 1807 003f 10e0 0808 1008 00e0      ? ...?.........
    1448:	100f 2020 1020 000f f808 0808 0808 00f0     ..   ...........
    1458:	3f20 0121 0101 0000 10e0 0808 1008 00e0      ?!.............
    1468:	100f 2828 5030 004f f808 8888 8888 0070     ..((0PO.......p.
    1478:	3f20 0020 0c03 2030 7000 0888 0808 0038      ? ...0 .p....8.
    1488:	3800 2120 2221 001c 0818 f808 0808 0018     .8 !!"..........
    1498:	0000 3f20 0020 0000 f808 0008 0800 08f8     .. ? ...........
    14a8:	1f00 2020 2020 001f 7808 0088 c800 0838     ..    ...x....8.
    14b8:	0000 3807 010e 0000 f808 f800 f800 0008     ...8............
    14c8:	0300 013e 033e 0000 1808 8068 6880 0818     ..>.>.....h..h..
    14d8:	3020 032c 2c03 2030 3808 00c8 38c8 0008      0,..,0 .8...8..
    14e8:	0000 3f20 0020 0000 0810 0808 38c8 0008     .. ? ........8..
    14f8:	3820 2126 2020 0018 0000 fe00 0202 0002      8&!  ..........
    1508:	0000 7f00 4040 0040 0400 c038 0000 0000     ....@@@...8.....
    1518:	0000 0100 3806 00c0 0200 0202 00fe 0000     .....8..........
    1528:	4000 4040 007f 0000 0000 0204 0402 0000     .@@@............
	...
    1548:	8080 8080 8080 8080 0200 0402 0000 0000     ................
	...
    1560:	0000 8080 0080 0000 1900 2424 3f12 0020     ..........$$.? .
    1570:	f010 8000 0080 0000 3f00 2011 1120 000e     .........?.  ...
    1580:	0000 8000 8080 0000 0e00 2011 2020 0011     ...........   ..
    1590:	0000 8080 9080 00f0 1f00 2020 1020 203f     ..........   .? 
    15a0:	0000 8080 8080 0000 1f00 2424 2424 0017     ..........$$$$..
    15b0:	8000 e080 9090 0020 2000 3f20 2020 0000     ...... ..  ?  ..
    15c0:	0000 8080 8080 0080 6b00 9494 9394 0060     .........k....`.
    15d0:	f010 8000 8080 0000 3f20 0021 2000 203f     ........ ?!.. ? 
    15e0:	8000 9898 0000 0000 2000 3f20 2020 0000     .........  ?  ..
    15f0:	0000 8000 9898 0000 c000 8080 7f80 0000     ................
    1600:	f010 0000 8080 0080 3f20 0624 3029 0020     ........ ?$.)0 .
    1610:	1000 f810 0000 0000 2000 3f20 2020 0000     .........  ?  ..
    1620:	8080 8080 8080 0080 3f20 0020 203f 3f00     ........ ? .? .?
    1630:	8080 8000 8080 0000 3f20 0021 2000 203f     ........ ?!.. ? 
    1640:	0000 8080 8080 0000 1f00 2020 2020 001f     ..........    ..
    1650:	8080 8000 0080 0000 ff80 2091 1120 000e     ...........  ...
    1660:	0000 8000 0080 0080 0e00 2011 9120 80ff     ...........  ...
    1670:	8080 0080 8080 0080 2020 213f 0020 0001     ........  ?! ...
    1680:	0000 8080 8080 0080 3300 2424 2424 0019     .........3$$$$..
    1690:	8000 e080 8080 0000 0000 1f00 2020 0010     ............  ..
    16a0:	8080 0000 8000 0080 1f00 2020 1020 203f     ..........   .? 
    16b0:	8080 0080 8080 0080 0300 300c 030c 0000     ...........0....
    16c0:	8080 8000 0080 8080 0e01 0c30 3807 0106     ..........0..8..
    16d0:	8000 8080 8000 0080 2000 0e31 312e 0020     ......... 1..1 .
    16e0:	8080 0080 8000 8080 8100 7886 0618 0001     ...........x....
    16f0:	8000 8080 8080 0080 2100 2c30 2122 0030     .........!0,"!0.
    1700:	0000 0000 fc00 0202 0000 0000 3e01 4040     .............>@@
    1710:	0000 0000 00ff 0000 0000 0000 00ff 0000     ................
    1720:	0202 00fc 0000 0000 4040 013e 0000 0000     ........@@>.....
    1730:	8000 8040 0080 0080 0000 0000 0100 0000     ..@.............

00001740 <ChineseFont_16_16>:
    1740:	6010 8c02 0000 92fe 9292 9292 00fe 0000     .`..............
    1750:	0404 017e 7e40 4242 427e 427e 7e42 0040     ..~.@~BB~B~BB~@.
    1760:	6010 8c02 fe00 9292 9292 9292 00fe 0000     .`..............
    1770:	0404 017e 4844 7f50 4040 507f 4448 0040     ..~.DHP.@@.PHD@.
    1780:	0000 24fc 2424 25fc 2426 24fc 2424 0004     ...$$$.%&$.$$$..
    1790:	3040 808f 4c84 2555 2525 4c55 8080 0080     @0...LU%%%UL....
    17a0:	5290 1034 10ff 5234 7080 088f f808 0008     .R4...4R.p......
    17b0:	9a82 6356 5222 008e 4080 0c33 4033 0080     ..Vc"R...@3.3@..
    17c0:	1010 10ff 0090 92fe 9292 92f2 9e92 0080     ................
    17d0:	8242 017f 6080 001f 44fc 4447 fc44 0000     B....`...DGDD...
    17e0:	0000 88f8 8888 0888 ff08 0908 c80a 0008     ................
    17f0:	6080 001f 2010 801f 2140 1816 4126 00f8     .`... ..@!..&A..
    1800:	0808 f808 0808 1008 ff10 1010 f010 0000     ................
    1810:	3010 1f10 8808 3048 010e 8040 3f40 0000     .0....H0..@.@?..
    1820:	0000 1618 d010 97b8 9090 9290 1094 0000     ................
    1830:	2000 8c10 8083 4641 1028 4428 8043 0080     . ....AF(.(DC...
    1840:	4040 cc42 8800 8e89 f888 8c88 888b 0080     @@B.............
    1850:	4000 1f20 4020 4850 4146 4442 4058 0040     .@ . @PHFABDX@@.
    1860:	4040 cc42 0400 6444 475c 44f4 4444 0004     @@B...Dd\G.DDD..
    1870:	4000 1f20 4420 4444 4444 447f 4444 0044     .@ . DDDDD.DDDD.
    1880:	1010 ff10 5010 5444 c665 6444 4454 0040     .....PDTe.DdTD@.
    1890:	4404 7f82 8201 4a82 2356 5222 824e 0002     .D.....JV#"RN...
    18a0:	0000 22fe 2222 00fe 82fe 9282 9ea2 0000     ..."""..........
    18b0:	6080 021f 8242 007f 40ff 102f 432c 0080     .`..B....@/.,C..
    18c0:	0000 8890 574c 24a4 5454 848c 0000 0000     ....LW.$TT......
    18d0:	0101 4280 1a22 0207 8242 3e42 0101 0001     ...B"...B.B>....
    18e0:	8080 929e 9292 e09e 9e80 d2b2 9e92 0080     ................
    18f0:	0808 94f4 9292 00f1 f201 9492 f894 0008     ................
    1900:	0000 0000 0000 40ff 4040 4040 0040 0000     .......@@@@@@...
    1910:	4040 4040 4040 407f 4040 4040 4040 0040     @@@@@@.@@@@@@@@.
    1920:	0202 0202 0202 02fe 4202 0282 0202 0002     .........B......
    1930:	0000 0000 0000 00ff 0000 0100 0006 0000     ................
    1940:	fe00 5a22 0086 92fe 9292 9292 00fe 0000     .."Z............
    1950:	ff00 0804 0007 40ff 0320 140c 4122 0040     .......@ ..."A@.
    1960:	8000 f860 0407 a4e4 bfa4 a4a4 04e4 0000     ..`.............
    1970:	0001 ff00 4040 4a7f 4a4a 4a4a 407f 0040     ....@@.JJJJJ.@@.
    1980:	4040 cc42 4000 9ea0 8282 9e82 20a0 0020     @@B..@.......  .
    1990:	0000 3f00 8890 4340 102c 4628 8041 0080     ...?..@C,.(FA...
    19a0:	1700 d515 5755 7d55 5755 d555 1715 0000     ....UWU}UWU.....
    19b0:	4040 7f40 5555 5555 5555 7f55 4040 0040     @@@.UUUUUUU.@@@.
    19c0:	8000 f860 4007 4848 5fe8 4848 4048 0040     ..`..@HH._HHH@@.
    19d0:	0001 ff00 0000 0b02 2212 0ad2 0006 0000     ........."......
    19e0:	0000 82fe 9292 fe92 9292 8292 00fe 0000     ................
    19f0:	6080 001f 1e00 1212 1e12 8040 007f 0000     .`........@.....
    1a00:	0400 24ff 2424 04ff fe00 2222 fe22 0000     ...$$$...."""...
    1a10:	4888 092f 1909 48af 0f30 4202 7f82 0000     .H/....H0..B....
    1a20:	1010 ff10 2090 4898 0928 280e a848 0018     ..... .H(..(H...
    1a30:	4202 7f81 4000 4240 4242 427e 4242 0040     .B...@@BBB~BBB@.
    1a40:	5040 484e ff48 4848 4048 00f8 ff00 0000     @PNHH.HHH@......
    1a50:	0000 023e ff02 2212 001e 400f 7f80 0000     ..>...."...@....
    1a60:	2000 a820 2a6c 2839 2aa8 a86c 2020 0000     .  .l*9(.*l.  ..
    1a70:	8202 9081 4a92 4549 2224 0810 0201 0002     .....JIE$"......
    1a80:	0000 f100 1412 1010 1410 f112 0000 0000     ................
    1a90:	3040 0300 4139 4541 4159 7341 0800 0030     @0..9AAEYAAs..0.
    1aa0:	0400 2424 2424 ff24 2424 2424 0424 0000     ..$$$$$.$$$$$...
    1ab0:	2121 0911 83fd 2341 0905 2911 4125 0041     !!....A#...)%AA.
    1ac0:	9080 4890 574c 2424 5424 444c 8080 0080     ...HLW$$$TLD....
    1ad0:	0000 ff00 4949 7f49 4949 ff49 0000 0000     ....III.III.....
    1ae0:	fe00 2202 8242 0272 4222 7282 fe02 0000     ..."B.r."B.r....
    1af0:	ff00 0810 0106 100e 0608 4e01 7f80 0000     ...........N....
    1b00:	3020 63ac 2030 1810 44a7 14a4 000c 0000      0.c0 ...D......
    1b10:	6722 1222 0412 fd02 4444 4544 02fd 0002     "g".....DDDE....
    1b20:	8000 f860 0007 2404 2524 2426 2424 0004     ..`....$$%&$$$..
    1b30:	0001 ff00 0000 f900 4949 4949 f949 0000     ........IIIII...
    1b40:	0000 fc00 5454 5556 5454 fc54 0000 0000     ....TTVUTTT.....
    1b50:	3040 0300 4139 4541 4159 7341 0800 0030     @0..9AAEYAAs..0.
    1b60:	4000 1e30 1010 ff10 1010 1010 0010 0000     .@0.............
    1b70:	8181 2141 0d11 0103 0d03 2111 8141 0081     ..A!.......!A...
    1b80:	fe00 fa02 fe02 2040 17d8 1010 10f0 0010     ......@ ........
    1b90:	4780 0f30 6710 4080 1621 1608 4021 0080     .G0..g.@!...!@..
    1ba0:	8000 f860 0007 223e e222 2222 003e 0000     ..`...>""."">...
    1bb0:	0001 ff00 1120 0509 ff03 0503 1109 0020     .... ......... .
    1bc0:	0404 e484 071c 2424 2424 64a4 0424 0004     ......$$$$.d$...
    1bd0:	0102 ff00 0200 4202 7f82 0202 0202 0002     .......B........
    1be0:	4040 cc42 0800 8848 0808 ff08 0808 0008     @@B...H.........
    1bf0:	4000 1f20 4020 4140 4840 4f50 4040 0040     .@ . @@A@HPO@@@.
    1c00:	0404 0404 94f4 9695 9494 04f4 0404 0004     ................
    1c10:	fe00 0202 4a7a 4a4a 4a4a 027a fe82 0000     ....zJJJJJz.....
    1c20:	0906 e609 0cf8 0204 0202 0202 1e04 0000     ................
    1c30:	0000 0700 301f 4020 4040 4040 1020 0000     .....0 @@@@@ ...
    1c40:	0000 be00 2a2a ea2a 2a2a 3e2a 0000 0000     ....***.***>....
    1c50:	4400 4942 4949 7f49 4949 4949 4041 0000     .DBIIII.IIIIA@..
    1c60:	0400 24ff 2424 04ff fe00 2222 fe22 0000     ...$$$...."""...
    1c70:	4888 092f 1909 48af 0f30 4202 7f82 0000     .H/....H0..B....
    1c80:	0000 fe00 8282 8282 8282 fe82 0000 0000     ................
    1c90:	0000 ff00 4040 4040 4040 ff40 0000 0000     ....@@@@@@@.....
    1ca0:	8080 8080 8080 8080 8080 8080 8080 0080     ................
	...
    1cc0:	0000 0808 0808 0808 0808 0808 0008 0000     ................
    1cd0:	1010 1010 1010 1010 1010 1010 1010 0010     ................
    1ce0:	0400 8484 8484 8484 8484 8484 0484 0000     ................
    1cf0:	2020 2020 2020 2020 2020 2020 2020 0020                    .
    1d00:	fc00 0404 fc04 0404 fc04 0404 fc04 0000     ................
    1d10:	7f00 2428 2023 2020 2120 2222 7f22 0000     ..($#    !"""...
    1d20:	0200 4242 c242 427e 4242 c242 0202 0000     ..BBB.~BBBB.....
    1d30:	4040 4040 4778 4040 4040 7f40 4040 0040     @@@@xG@@@@@.@@@.
    1d40:	2020 2020 2020 2221 202c 2020 2020 0020           !",      .
    1d50:	4000 1020 030c 0000 0100 0402 6018 0000     .@ ..........`..
    1d60:	2000 c718 4444 4444 44fc 4444 0444 0000     . ..DDDD.DDDD...
    1d70:	0404 0704 0404 0404 04ff 0404 0404 0004     ................
    1d80:	0000 fe00 2222 2222 2222 2222 00fe 0000     ....""""""""....
    1d90:	4080 0f30 0202 0202 0202 8242 007f 0000     .@0.......B.....
    1da0:	f800 0601 f000 1212 f212 0202 fe02 0000     ................
    1db0:	ff00 0000 1f00 1111 1f11 4000 7f80 0000     ...........@....
