
CH32V307VCT6.elf:     file format elf32-littleriscv
CH32V307VCT6.elf
architecture: riscv:rv32, flags 0x00000112:
EXEC_P, HAS_SYMS, D_PAGED
start address 0x00000000

Program Header:
    LOAD off    0x00001000 vaddr 0x00000000 paddr 0x00000000 align 2**12
         filesz 0x000030e0 memsz 0x000030e0 flags r-x
    LOAD off    0x00005000 vaddr 0x20000000 paddr 0x000030e0 align 2**12
         filesz 0x00000098 memsz 0x00000118 flags rw-
    LOAD off    0x00005800 vaddr 0x20007800 paddr 0x20007800 align 2**12
         filesz 0x00000000 memsz 0x00000800 flags rw-

Sections:
Idx Name          Size      VMA       LMA       File off  Algn
  0 .init         00000004  00000000  00000000  00001000  2**1
                  CONTENTS, ALLOC, LOAD, READONLY, CODE
  1 .vector       000001bc  00000004  00000004  00001004  2**1
                  CONTENTS, ALLOC, LOAD, READONLY, CODE
  2 .text         00002f20  000001c0  000001c0  000011c0  2**2
                  CONTENTS, ALLOC, LOAD, READONLY, CODE
  3 .fini         00000000  000030e0  000030e0  00005098  2**0
                  CONTENTS, ALLOC, LOAD, CODE
  4 .dalign       00000000  20000000  20000000  00005098  2**0
                  CONTENTS
  5 .dlalign      00000000  000030e0  000030e0  00005098  2**0
                  CONTENTS
  6 .data         00000098  20000000  000030e0  00005000  2**2
                  CONTENTS, ALLOC, LOAD, DATA
  7 .bss          00000080  20000098  00003178  00005098  2**2
                  ALLOC
  8 .stack        00000800  20007800  20007800  00005800  2**0
                  ALLOC
  9 .debug_info   0000f544  00000000  00000000  00005098  2**0
                  CONTENTS, READONLY, DEBUGGING
 10 .debug_abbrev 00002b62  00000000  00000000  000145dc  2**0
                  CONTENTS, READONLY, DEBUGGING
 11 .debug_aranges 00000690  00000000  00000000  00017140  2**3
                  CONTENTS, READONLY, DEBUGGING
 12 .debug_ranges 000006a0  00000000  00000000  000177d0  2**3
                  CONTENTS, READONLY, DEBUGGING
 13 .debug_line   00008c81  00000000  00000000  00017e70  2**0
                  CONTENTS, READONLY, DEBUGGING
 14 .debug_str    00002297  00000000  00000000  00020af1  2**0
                  CONTENTS, READONLY, DEBUGGING
 15 .comment      00000033  00000000  00000000  00022d88  2**0
                  CONTENTS, READONLY
 16 .debug_frame  00001840  00000000  00000000  00022dbc  2**2
                  CONTENTS, READONLY, DEBUGGING
 17 .debug_loc    00002595  00000000  00000000  000245fc  2**0
                  CONTENTS, READONLY, DEBUGGING
 18 .stab         00000084  00000000  00000000  00026b94  2**2
                  CONTENTS, READONLY, DEBUGGING
 19 .stabstr      00000117  00000000  00000000  00026c18  2**0
                  CONTENTS, READONLY, DEBUGGING
SYMBOL TABLE:
00000000 l    d  .init	00000000 .init
00000004 l    d  .vector	00000000 .vector
000001c0 l    d  .text	00000000 .text
000030e0 l    d  .fini	00000000 .fini
20000000 l    d  .dalign	00000000 .dalign
000030e0 l    d  .dlalign	00000000 .dlalign
20000000 l    d  .data	00000000 .data
20000098 l    d  .bss	00000000 .bss
20007800 l    d  .stack	00000000 .stack
00000000 l    d  .debug_info	00000000 .debug_info
00000000 l    d  .debug_abbrev	00000000 .debug_abbrev
00000000 l    d  .debug_aranges	00000000 .debug_aranges
00000000 l    d  .debug_ranges	00000000 .debug_ranges
00000000 l    d  .debug_line	00000000 .debug_line
00000000 l    d  .debug_str	00000000 .debug_str
00000000 l    d  .comment	00000000 .comment
00000000 l    d  .debug_frame	00000000 .debug_frame
00000000 l    d  .debug_loc	00000000 .debug_loc
00000000 l    d  .stab	00000000 .stab
00000000 l    d  .stabstr	00000000 .stabstr
00000000 l    df *ABS*	00000000 ./Startup/startup_ch32v30x_D8C.o
00000004 l       .vector	00000000 _vector_base
00000000 l    df *ABS*	00000000 ch32v30x_it.c
00000000 l    df *ABS*	00000000 main.c
00000000 l    df *ABS*	00000000 system_ch32v30x.c
00000000 l    df *ABS*	00000000 ch32v30x_gpio.c
00000000 l    df *ABS*	00000000 ch32v30x_misc.c
00000000 l    df *ABS*	00000000 ch32v30x_rcc.c
20000010 l     O .data	00000010 APBAHBPrescTable
20000084 l     O .data	00000004 ADCPrescTable
00000000 l    df *ABS*	00000000 ch32v30x_usart.c
00000000 l    df *ABS*	00000000 atk_ms6050.c
00000000 l    df *ABS*	00000000 Driver_I2C2.c
00000000 l    df *ABS*	00000000 Driver_Key.c
00000000 l    df *ABS*	00000000 Driver_LED.c
00000000 l    df *ABS*	00000000 Driver_TIM1.c
00000000 l    df *ABS*	00000000 Driver_TIM6.c
00000000 l    df *ABS*	00000000 Driver_USART.c
00000000 l    df *ABS*	00000000 debug.c
200000a4 l     O .bss	00000002 p_ms
200000a6 l     O .bss	00000001 p_us
20000088 l     O .data	00000004 curbrk.5288
00000000 l    df *ABS*	00000000 addsf3.c
00000000 l    df *ABS*	00000000 divsf3.c
00000000 l    df *ABS*	00000000 mulsf3.c
00000000 l    df *ABS*	00000000 fixsfsi.c
00000000 l    df *ABS*	00000000 floatsisf.c
00000000 l    df *ABS*	00000000 libgcc2.c
00000000 l    df *ABS*	00000000 printf.c
00000000 l    df *ABS*	00000000 wbuf.c
00000000 l    df *ABS*	00000000 wsetup.c
00000000 l    df *ABS*	00000000 fflush.c
00000000 l    df *ABS*	00000000 findfp.c
00002068 l     F .text	00000066 std
00000000 l    df *ABS*	00000000 fwalk.c
00000000 l    df *ABS*	00000000 makebuf.c
00000000 l    df *ABS*	00000000 nano-mallocr.c
00000000 l    df *ABS*	00000000 nano-mallocr.c
00000000 l    df *ABS*	00000000 nano-vfprintf.c
000024ee l     F .text	00000028 __sfputc_r
00000000 l    df *ABS*	00000000 nano-vfprintf_i.c
00000000 l    df *ABS*	00000000 sbrkr.c
00000000 l    df *ABS*	00000000 stdio.c
00000000 l    df *ABS*	00000000 writer.c
00000000 l    df *ABS*	00000000 closer.c
00000000 l    df *ABS*	00000000 fstatr.c
00000000 l    df *ABS*	00000000 isattyr.c
00000000 l    df *ABS*	00000000 lseekr.c
00000000 l    df *ABS*	00000000 memchr.c
00000000 l    df *ABS*	00000000 mlock.c
00000000 l    df *ABS*	00000000 readr.c
00000000 l    df *ABS*	00000000 close.c
00000000 l    df *ABS*	00000000 fstat.c
00000000 l    df *ABS*	00000000 isatty.c
00000000 l    df *ABS*	00000000 lseek.c
00000000 l    df *ABS*	00000000 read.c
00000000 l    df *ABS*	00000000 libgcc2.c
00000000 l    df *ABS*	00000000 impure.c
20000020 l     O .data	00000060 impure_data
00000000 l    df *ABS*	00000000 reent.c
000005ba  w      .text	00000000 EXTI2_IRQHandler
000005ba  w      .text	00000000 TIM8_TRG_COM_IRQHandler
000005ba  w      .text	00000000 TIM8_CC_IRQHandler
00002cdc g     F .text	00000028 _isatty_r
00001016 g     F .text	000000e0 Driver_USART2_Init
00002d04 g     F .text	0000002c _lseek_r
000005ba  w      .text	00000000 UART8_IRQHandler
00001cdc g     F .text	00000040 printf
20000880 g       .data	00000000 __global_pointer$
000001c8 g     F .text	00000028 .hidden __riscv_save_8
00000e82 g     F .text	00000078 Driver_I2C_SendByte
000005ba  w      .text	00000000 TIM1_CC_IRQHandler
00002c26 g     F .text	00000030 __sseek
0000211e g     F .text	00000066 __sinit
00001d1c g     F .text	000000bc __swbuf_r
000002ca g     F .text	00000010 HardFault_Handler
000020d8 g     F .text	00000046 __sfmoreglue
00002d4a g     F .text	00000002 __malloc_unlock
00000214 g     F .text	0000000c .hidden __riscv_restore_3
00001002 g     F .text	00000014 TIM6_IRQHandler
00001608 g     F .text	000002ae .hidden __divsf3
00001134 g     F .text	00000016 SysTick_Handler
0000070c g     F .text	0000004e NVIC_Init
000005ba  w      .text	00000000 PVD_IRQHandler
000005ba  w      .text	00000000 SDIO_IRQHandler
000005ba  w      .text	00000000 TIM9_BRK_IRQHandler
00000200 g     F .text	00000020 .hidden __riscv_restore_10
000005ba  w      .text	00000000 DMA2_Channel8_IRQHandler
000002c8 g     F .text	00000002 NMI_Handler
00001b46 g     F .text	00000062 .hidden __fixsfsi
00000a74 g     F .text	0000000e atk_ms6050_read_byte
000005ba  w      .text	00000000 CAN2_RX1_IRQHandler
000005ba  w      .text	00000000 EXTI3_IRQHandler
000001c8 g     F .text	00000028 .hidden __riscv_save_11
00000adc g     F .text	00000040 atk_ms6050_set_lpf
00000a82 g     F .text	0000002a atk_ms6050_sw_reset
000005ba  w      .text	00000000 USBHS_IRQHandler
00000998 g     F .text	0000000a USART_GetFlagStatus
000005ba  w      .text	00000000 DMA2_Channel9_IRQHandler
00002cb2 g     F .text	0000002a _fstat_r
000005ba  w      .text	00000000 TIM10_CC_IRQHandler
20000114 g     O .bss	00000004 errno
20000098 g       .bss	00000000 _sbss
00000800 g       *ABS*	00000000 __stack_size
000011e0 g     F .text	0000005a USART_Printf_Init
000005ba  w      .text	00000000 USBFS_IRQHandler
00000214 g     F .text	0000000c .hidden __riscv_restore_2
00000f9e g     F .text	00000010 Drviver_LED_Off
00000da8 g     F .text	00000056 Driver_I2C2_Ack
000020ce g     F .text	0000000a _cleanup_r
000005ba  w      .text	00000000 EXTI0_IRQHandler
000005ba  w      .text	00000000 I2C2_EV_IRQHandler
000005ba  w      .text	00000000 TIM10_TRG_COM_IRQHandler
20000080 g     O .data	00000004 SystemCoreClock
00000b1c g     F .text	0000004a atk_ms6050_set_rate
00002d84 g     F .text	0000000c _fstat
00000004 g       .init	00000000 _einit
000008d0 g     F .text	0000001e RCC_APB2PeriphClockCmd
000001c0 g     F .text	00000030 .hidden __riscv_save_12
000005ba  w      .text	00000000 CAN2_SCE_IRQHandler
000005ba  w      .text	00000000 ADC1_2_IRQHandler
000009a2 g     F .text	00000054 atk_ms6050_write
00000646 g     F .text	000000c0 GPIO_Init
200000b0 g     O .bss	00000064 buff
000005ba  w      .text	00000000 Break_Point_Handler
00000200 g     F .text	00000020 .hidden __riscv_restore_11
20000098 g     O .bss	00000004 NVIC_Priority_Group
000005ba  w      .text	00000000 SPI1_IRQHandler
0000097a g     F .text	00000016 USART_Cmd
00002b88 g     F .text	0000002a _sbrk_r
000001f0 g     F .text	0000000c .hidden __riscv_save_1
000005ba  w      .text	00000000 TAMPER_IRQHandler
00000214 g     F .text	0000000c .hidden __riscv_restore_0
00002d4c g     F .text	0000002c _read_r
000001d6 g     F .text	0000001a .hidden __riscv_save_7
000005ba  w      .text	00000000 CAN2_RX0_IRQHandler
000005ba  w      .text	00000000 TIM8_UP_IRQHandler
000005ba  w      .text	00000000 Ecall_M_Mode_Handler
20007800 g       .stack	00000000 _heap_end
00000fca g     F .text	00000018 Driver_TIM1_Stop
00002d90 g     F .text	0000000c _isatty
00001174 g     F .text	00000036 Delay_Us
20000090 g     O .data	00000004 _global_impure_ptr
0000020a g     F .text	00000016 .hidden __riscv_restore_5
000005ba  w      .text	00000000 DMA2_Channel2_IRQHandler
000005ba  w      .text	00000000 DMA1_Channel4_IRQHandler
00001278 g     F .text	00000026 _sbrk
000005ba  w      .text	00000000 TIM9_UP_IRQHandler
0000020a g     F .text	00000016 .hidden __riscv_restore_6
000005ba  w      .text	00000000 USART3_IRQHandler
000005ba  w      .text	00000000 RTC_IRQHandler
20000118 g       .bss	00000000 _ebss
000005ba  w      .text	00000000 DMA1_Channel7_IRQHandler
00000d14 g     F .text	00000030 Driver_I2C2_Init
000005ba  w      .text	00000000 CAN1_RX1_IRQHandler
0000114a g     F .text	0000002a Delay_Init
000005ba  w      .text	00000000 DVP_IRQHandler
000005ba  w      .text	00000000 UART5_IRQHandler
000005ba  w      .text	00000000 TIM4_IRQHandler
000001c8 g     F .text	00000028 .hidden __riscv_save_9
000005ba  w      .text	00000000 DMA2_Channel1_IRQHandler
00003044 g     O .text	00000020 __sf_fake_stderr
000001d6 g     F .text	0000001a .hidden __riscv_save_4
000005ba  w      .text	00000000 I2C1_EV_IRQHandler
00000aac g     F .text	00000018 atk_ms6050_set_gyro_fsr
0000075a g     F .text	00000176 RCC_GetClocksFreq
000005ba  w      .text	00000000 DMA1_Channel6_IRQHandler
00001c6e g     F .text	0000006e .hidden __clzsi2
00002516 g     F .text	00000040 __sfputs_r
000005ba  w      .text	00000000 UART4_IRQHandler
00000f8a g     F .text	00000014 Drviver_LED_On
000005ba  w      .text	00000000 DMA2_Channel4_IRQHandler
00002d30 g     F .text	00000018 memchr
000008ee g     F .text	0000008c USART_Init
00002372 g     F .text	000000a8 _free_r
000005ba  w      .text	00000000 TIM3_IRQHandler
000005ba  w      .text	00000000 RCC_IRQHandler
000001f0 g     F .text	0000000c .hidden __riscv_save_3
000005ba  w      .text	00000000 TIM1_TRG_COM_IRQHandler
00000efa g     F .text	00000062 Driver_I2C_ReadByteAck
000005ba  w      .text	00000000 DMA1_Channel1_IRQHandler
00000000 g       .init	00000000 _start
000005ba  w      .text	00000000 DMA2_Channel7_IRQHandler
20000000 g     O .data	00000010 AHBPrescTable
00002d9c g     F .text	0000000c _lseek
00001ba8 g     F .text	000000c6 .hidden __floatsisf
00000ac4 g     F .text	00000018 atk_ms6050_set_accel_fsr
00000f5c g     F .text	0000002e EXTI15_10_IRQHandler
00000e3c g     F .text	00000046 Driver_I2C2_WaitAck
000005ba  w      .text	00000000 TIM7_IRQHandler
00002c8a g     F .text	00000028 _close_r
000005ba  w      .text	00000000 CAN2_TX_IRQHandler
20000000 g       .dalign	00000000 _data_vma
000005ba  w      .text	00000000 TIM5_IRQHandler
00000c46 g     F .text	000000ce atk_ms6050_init
00001dd8 g     F .text	000000fc __swsetup_r
000005ba  w      .text	00000000 EXTI9_5_IRQHandler
00002184 g     F .text	0000009c __sfp
00000fae g     F .text	0000001c Drviver_LED_Toggle
000001c8 g     F .text	00000028 .hidden __riscv_save_10
00002bb2 g     F .text	0000002c __sread
000005ba  w      .text	00000000 ETH_WKUP_IRQHandler
00002d48 g     F .text	00000002 __malloc_lock
0000020a g     F .text	00000016 .hidden __riscv_restore_4
00000200 g     F .text	00000020 .hidden __riscv_restore_8
00002004 g     F .text	00000064 _fflush_r
000001d6 g     F .text	0000001a .hidden __riscv_save_6
000005ba  w      .text	00000000 SPI2_IRQHandler
00003064 g     O .text	00000020 __sf_fake_stdin
00000220 g     F .text	000000a8 memset
00000200 g     F .text	00000020 .hidden __riscv_restore_9
0000020a g     F .text	00000016 .hidden __riscv_restore_7
000002da g     F .text	000000b8 main
000005ba  w      .text	00000000 TIM10_BRK_IRQHandler
00000dfe g     F .text	0000003e Driver_I2C2_NAck
000005ba  w      .text	00000000 TIM9_CC_IRQHandler
00000a0c g     F .text	00000068 atk_ms6050_read
00002c56 g     F .text	00000006 __sclose
000005ba  w      .text	00000000 DMA2_Channel5_IRQHandler
0000241a g     F .text	000000d4 _malloc_r
000005ba  w      .text	00000000 DMA1_Channel5_IRQHandler
000005ba  w      .text	00000000 EXTI4_IRQHandler
000011aa g     F .text	00000036 Delay_Ms
000005ba  w      .text	00000000 USB_LP_CAN1_RX0_IRQHandler
000018b6 g     F .text	00000290 .hidden __mulsf3
00000c04 g     F .text	00000042 atk_ms6050_get_accelerometer
00000392 g     F .text	000000fa SystemInit
000005ba  w      .text	00000000 RNG_IRQHandler
00001cdc g     F .text	00000040 iprintf
000005ba  w      .text	00000000 USB_HP_CAN1_TX_IRQHandler
00002f44 g     O .text	00000100 .hidden __clz_tab
00000000 g       .init	00000000 _sinit
000009f6 g     F .text	00000016 atk_ms6050_write_byte
00002c5c g     F .text	0000002e _write_r
000005ba  w      .text	00000000 DMA1_Channel3_IRQHandler
2000009c g     O .bss	00000001 isToSend
000005ba  w      .text	00000000 ETH_IRQHandler
000027dc g     F .text	0000010c _printf_common
2000008c g     O .data	00000004 _impure_ptr
00000fe2 g     F .text	00000020 TIM1_UP_IRQHandler
00001ed4 g     F .text	00000130 __sflush_r
000005ba  w      .text	00000000 WWDG_IRQHandler
000005ba  w      .text	00000000 USBHSWakeup_IRQHandler
000005ba  w      .text	00000000 DMA2_Channel11_IRQHandler
000005ba  w      .text	00000000 Ecall_U_Mode_Handler
000005ba  w      .text	00000000 DMA2_Channel6_IRQHandler
000005ba  w      .text	00000000 TIM2_IRQHandler
20008000 g       .stack	00000000 _eusrstack
000001f0 g     F .text	0000000c .hidden __riscv_save_2
000005ba  w      .text	00000000 SW_Handler
00000b66 g     F .text	0000005c atk_ms6050_get_temperature
000005ba  w      .text	00000000 TIM1_BRK_IRQHandler
0000228a g     F .text	00000058 __swhatbuf_r
00000990 g     F .text	00000008 USART_SendData
000005ba  w      .text	00000000 DMA2_Channel10_IRQHandler
000005ba  w      .text	00000000 EXTI1_IRQHandler
000001d6 g     F .text	0000001a .hidden __riscv_save_5
0000123a g     F .text	0000003e _write
20000098 g       .data	00000000 _edata
20000118 g       .bss	00000000 _end
000005ba  w      .text	00000000 RTCAlarm_IRQHandler
000030e0 g       .dlalign	00000000 _data_lma
000005ba  w      .text	00000000 TIM10_UP_IRQHandler
000005ba  w      .text	00000000 TIM9_TRG_COM_IRQHandler
000005ba  w      .text	00000000 UART7_IRQHandler
000005ba  w      .text	00000000 USART2_IRQHandler
000005ba  w      .text	00000000 UART6_IRQHandler
00002bde g     F .text	00000048 __swrite
00002556 g     F .text	00000286 _vfiprintf_r
00000d76 g     F .text	00000032 Driver_I2C2_Stop
00002220 g     F .text	0000006a _fwalk_reent
0000048c g     F .text	0000012e SystemCoreClockUpdate
000005ba  w      .text	00000000 I2C2_ER_IRQHandler
000005ba  w      .text	00000000 DMA1_Channel2_IRQHandler
00000d44 g     F .text	00000032 Driver_I2C2_Start
00003084 g     O .text	00000020 __sf_fake_stdout
00000bc2 g     F .text	00000042 atk_ms6050_get_gyroscope
000001fc g     F .text	00000024 .hidden __riscv_restore_12
000005ba  w      .text	00000000 TIM8_BRK_IRQHandler
00002da8 g     F .text	0000000c _read
000005bc  w      .text	00000000 handle_reset
000005ba  w      .text	00000000 CAN1_SCE_IRQHandler
000001f0 g     F .text	0000000c .hidden __riscv_save_0
000005ba  w      .text	00000000 FLASH_IRQHandler
000010f6 g     F .text	0000003e USART1_IRQHandler
000022e2 g     F .text	00000090 __smakebuf_r
000028e8 g     F .text	000002a0 _printf_i
000005ba  w      .text	00000000 SPI3_IRQHandler
200000ac g     O .bss	00000004 __malloc_sbrk_start
000005ba  w      .text	00000000 I2C1_ER_IRQHandler
00000706 g     F .text	00000006 NVIC_PriorityGroupConfig
200000a8 g     O .bss	00000004 __malloc_free_list
2000009d g     O .bss	00000001 len
00000214 g     F .text	0000000c .hidden __riscv_restore_1
00002556 g     F .text	00000286 _vfprintf_r
200000a0 g     O .bss	00000004 g_tickCount
0000129e g     F .text	0000036a .hidden __addsf3
000005ba  w      .text	00000000 USBWakeUp_IRQHandler
00002d78 g     F .text	0000000c _close
000005ba  w      .text	00000000 DMA2_Channel3_IRQHandler



Disassembly of section .init:

00000000 <_sinit>:
   0:	5bc0006f          	j	5bc <handle_reset>

Disassembly of section .vector:

00000004 <_vector_base>:
	...
   c:	02c8                	addi	a0,sp,324
   e:	0000                	unimp
  10:	02ca                	slli	t0,t0,0x12
  12:	0000                	unimp
  14:	0000                	unimp
  16:	0000                	unimp
  18:	05ba                	slli	a1,a1,0xe
	...
  22:	0000                	unimp
  24:	05ba                	slli	a1,a1,0xe
  26:	0000                	unimp
  28:	05ba                	slli	a1,a1,0xe
	...
  32:	0000                	unimp
  34:	1134                	addi	a3,sp,168
  36:	0000                	unimp
  38:	0000                	unimp
  3a:	0000                	unimp
  3c:	05ba                	slli	a1,a1,0xe
  3e:	0000                	unimp
  40:	0000                	unimp
  42:	0000                	unimp
  44:	05ba                	slli	a1,a1,0xe
  46:	0000                	unimp
  48:	05ba                	slli	a1,a1,0xe
  4a:	0000                	unimp
  4c:	05ba                	slli	a1,a1,0xe
  4e:	0000                	unimp
  50:	05ba                	slli	a1,a1,0xe
  52:	0000                	unimp
  54:	05ba                	slli	a1,a1,0xe
  56:	0000                	unimp
  58:	05ba                	slli	a1,a1,0xe
  5a:	0000                	unimp
  5c:	05ba                	slli	a1,a1,0xe
  5e:	0000                	unimp
  60:	05ba                	slli	a1,a1,0xe
  62:	0000                	unimp
  64:	05ba                	slli	a1,a1,0xe
  66:	0000                	unimp
  68:	05ba                	slli	a1,a1,0xe
  6a:	0000                	unimp
  6c:	05ba                	slli	a1,a1,0xe
  6e:	0000                	unimp
  70:	05ba                	slli	a1,a1,0xe
  72:	0000                	unimp
  74:	05ba                	slli	a1,a1,0xe
  76:	0000                	unimp
  78:	05ba                	slli	a1,a1,0xe
  7a:	0000                	unimp
  7c:	05ba                	slli	a1,a1,0xe
  7e:	0000                	unimp
  80:	05ba                	slli	a1,a1,0xe
  82:	0000                	unimp
  84:	05ba                	slli	a1,a1,0xe
  86:	0000                	unimp
  88:	05ba                	slli	a1,a1,0xe
  8a:	0000                	unimp
  8c:	05ba                	slli	a1,a1,0xe
  8e:	0000                	unimp
  90:	05ba                	slli	a1,a1,0xe
  92:	0000                	unimp
  94:	05ba                	slli	a1,a1,0xe
  96:	0000                	unimp
  98:	05ba                	slli	a1,a1,0xe
  9a:	0000                	unimp
  9c:	05ba                	slli	a1,a1,0xe
  9e:	0000                	unimp
  a0:	05ba                	slli	a1,a1,0xe
  a2:	0000                	unimp
  a4:	05ba                	slli	a1,a1,0xe
  a6:	0000                	unimp
  a8:	0fe2                	slli	t6,t6,0x18
  aa:	0000                	unimp
  ac:	05ba                	slli	a1,a1,0xe
  ae:	0000                	unimp
  b0:	05ba                	slli	a1,a1,0xe
  b2:	0000                	unimp
  b4:	05ba                	slli	a1,a1,0xe
  b6:	0000                	unimp
  b8:	05ba                	slli	a1,a1,0xe
  ba:	0000                	unimp
  bc:	05ba                	slli	a1,a1,0xe
  be:	0000                	unimp
  c0:	05ba                	slli	a1,a1,0xe
  c2:	0000                	unimp
  c4:	05ba                	slli	a1,a1,0xe
  c6:	0000                	unimp
  c8:	05ba                	slli	a1,a1,0xe
  ca:	0000                	unimp
  cc:	05ba                	slli	a1,a1,0xe
  ce:	0000                	unimp
  d0:	05ba                	slli	a1,a1,0xe
  d2:	0000                	unimp
  d4:	05ba                	slli	a1,a1,0xe
  d6:	0000                	unimp
  d8:	10f6                	slli	ra,ra,0x3d
  da:	0000                	unimp
  dc:	05ba                	slli	a1,a1,0xe
  de:	0000                	unimp
  e0:	05ba                	slli	a1,a1,0xe
  e2:	0000                	unimp
  e4:	0f5c                	addi	a5,sp,916
  e6:	0000                	unimp
  e8:	05ba                	slli	a1,a1,0xe
  ea:	0000                	unimp
  ec:	05ba                	slli	a1,a1,0xe
  ee:	0000                	unimp
  f0:	05ba                	slli	a1,a1,0xe
  f2:	0000                	unimp
  f4:	05ba                	slli	a1,a1,0xe
  f6:	0000                	unimp
  f8:	05ba                	slli	a1,a1,0xe
  fa:	0000                	unimp
  fc:	05ba                	slli	a1,a1,0xe
  fe:	0000                	unimp
 100:	05ba                	slli	a1,a1,0xe
 102:	0000                	unimp
 104:	0000                	unimp
 106:	0000                	unimp
 108:	05ba                	slli	a1,a1,0xe
 10a:	0000                	unimp
 10c:	05ba                	slli	a1,a1,0xe
 10e:	0000                	unimp
 110:	05ba                	slli	a1,a1,0xe
 112:	0000                	unimp
 114:	05ba                	slli	a1,a1,0xe
 116:	0000                	unimp
 118:	05ba                	slli	a1,a1,0xe
 11a:	0000                	unimp
 11c:	1002                	c.slli	zero,0x20
 11e:	0000                	unimp
 120:	05ba                	slli	a1,a1,0xe
 122:	0000                	unimp
 124:	05ba                	slli	a1,a1,0xe
 126:	0000                	unimp
 128:	05ba                	slli	a1,a1,0xe
 12a:	0000                	unimp
 12c:	05ba                	slli	a1,a1,0xe
 12e:	0000                	unimp
 130:	05ba                	slli	a1,a1,0xe
 132:	0000                	unimp
 134:	05ba                	slli	a1,a1,0xe
 136:	0000                	unimp
 138:	05ba                	slli	a1,a1,0xe
 13a:	0000                	unimp
 13c:	05ba                	slli	a1,a1,0xe
 13e:	0000                	unimp
 140:	05ba                	slli	a1,a1,0xe
 142:	0000                	unimp
 144:	05ba                	slli	a1,a1,0xe
 146:	0000                	unimp
 148:	05ba                	slli	a1,a1,0xe
 14a:	0000                	unimp
 14c:	05ba                	slli	a1,a1,0xe
 14e:	0000                	unimp
 150:	05ba                	slli	a1,a1,0xe
 152:	0000                	unimp
 154:	05ba                	slli	a1,a1,0xe
 156:	0000                	unimp
 158:	05ba                	slli	a1,a1,0xe
 15a:	0000                	unimp
 15c:	05ba                	slli	a1,a1,0xe
 15e:	0000                	unimp
 160:	05ba                	slli	a1,a1,0xe
 162:	0000                	unimp
 164:	05ba                	slli	a1,a1,0xe
 166:	0000                	unimp
 168:	05ba                	slli	a1,a1,0xe
 16a:	0000                	unimp
 16c:	05ba                	slli	a1,a1,0xe
 16e:	0000                	unimp
 170:	05ba                	slli	a1,a1,0xe
 172:	0000                	unimp
 174:	05ba                	slli	a1,a1,0xe
 176:	0000                	unimp
 178:	05ba                	slli	a1,a1,0xe
 17a:	0000                	unimp
 17c:	05ba                	slli	a1,a1,0xe
 17e:	0000                	unimp
 180:	05ba                	slli	a1,a1,0xe
 182:	0000                	unimp
 184:	05ba                	slli	a1,a1,0xe
 186:	0000                	unimp
 188:	05ba                	slli	a1,a1,0xe
 18a:	0000                	unimp
 18c:	05ba                	slli	a1,a1,0xe
 18e:	0000                	unimp
 190:	05ba                	slli	a1,a1,0xe
 192:	0000                	unimp
 194:	05ba                	slli	a1,a1,0xe
 196:	0000                	unimp
 198:	05ba                	slli	a1,a1,0xe
 19a:	0000                	unimp
 19c:	05ba                	slli	a1,a1,0xe
 19e:	0000                	unimp
 1a0:	05ba                	slli	a1,a1,0xe
	...

Disassembly of section .text:

000001c0 <__riscv_save_12>:
     1c0:	7139                	addi	sp,sp,-64
     1c2:	4301                	li	t1,0
     1c4:	c66e                	sw	s11,12(sp)
     1c6:	a019                	j	1cc <__riscv_save_10+0x4>

000001c8 <__riscv_save_10>:
     1c8:	7139                	addi	sp,sp,-64
     1ca:	5341                	li	t1,-16
     1cc:	c86a                	sw	s10,16(sp)
     1ce:	ca66                	sw	s9,20(sp)
     1d0:	cc62                	sw	s8,24(sp)
     1d2:	ce5e                	sw	s7,28(sp)
     1d4:	a019                	j	1da <__riscv_save_4+0x4>

000001d6 <__riscv_save_4>:
     1d6:	7139                	addi	sp,sp,-64
     1d8:	5301                	li	t1,-32
     1da:	d05a                	sw	s6,32(sp)
     1dc:	d256                	sw	s5,36(sp)
     1de:	d452                	sw	s4,40(sp)
     1e0:	d64e                	sw	s3,44(sp)
     1e2:	d84a                	sw	s2,48(sp)
     1e4:	da26                	sw	s1,52(sp)
     1e6:	dc22                	sw	s0,56(sp)
     1e8:	de06                	sw	ra,60(sp)
     1ea:	40610133          	sub	sp,sp,t1
     1ee:	8282                	jr	t0

000001f0 <__riscv_save_0>:
     1f0:	1141                	addi	sp,sp,-16
     1f2:	c04a                	sw	s2,0(sp)
     1f4:	c226                	sw	s1,4(sp)
     1f6:	c422                	sw	s0,8(sp)
     1f8:	c606                	sw	ra,12(sp)
     1fa:	8282                	jr	t0

000001fc <__riscv_restore_12>:
     1fc:	4db2                	lw	s11,12(sp)
     1fe:	0141                	addi	sp,sp,16

00000200 <__riscv_restore_10>:
     200:	4d02                	lw	s10,0(sp)
     202:	4c92                	lw	s9,4(sp)
     204:	4c22                	lw	s8,8(sp)
     206:	4bb2                	lw	s7,12(sp)
     208:	0141                	addi	sp,sp,16

0000020a <__riscv_restore_4>:
     20a:	4b02                	lw	s6,0(sp)
     20c:	4a92                	lw	s5,4(sp)
     20e:	4a22                	lw	s4,8(sp)
     210:	49b2                	lw	s3,12(sp)
     212:	0141                	addi	sp,sp,16

00000214 <__riscv_restore_0>:
     214:	4902                	lw	s2,0(sp)
     216:	4492                	lw	s1,4(sp)
     218:	4422                	lw	s0,8(sp)
     21a:	40b2                	lw	ra,12(sp)
     21c:	0141                	addi	sp,sp,16
     21e:	8082                	ret

00000220 <memset>:
     220:	433d                	li	t1,15
     222:	872a                	mv	a4,a0
     224:	02c37363          	bgeu	t1,a2,24a <memset+0x2a>
     228:	00f77793          	andi	a5,a4,15
     22c:	efbd                	bnez	a5,2aa <memset+0x8a>
     22e:	e5ad                	bnez	a1,298 <memset+0x78>
     230:	ff067693          	andi	a3,a2,-16
     234:	8a3d                	andi	a2,a2,15
     236:	96ba                	add	a3,a3,a4
     238:	c30c                	sw	a1,0(a4)
     23a:	c34c                	sw	a1,4(a4)
     23c:	c70c                	sw	a1,8(a4)
     23e:	c74c                	sw	a1,12(a4)
     240:	0741                	addi	a4,a4,16
     242:	fed76be3          	bltu	a4,a3,238 <memset+0x18>
     246:	e211                	bnez	a2,24a <memset+0x2a>
     248:	8082                	ret
     24a:	40c306b3          	sub	a3,t1,a2
     24e:	068a                	slli	a3,a3,0x2
     250:	00000297          	auipc	t0,0x0
     254:	9696                	add	a3,a3,t0
     256:	00a68067          	jr	10(a3)
     25a:	00b70723          	sb	a1,14(a4)
     25e:	00b706a3          	sb	a1,13(a4)
     262:	00b70623          	sb	a1,12(a4)
     266:	00b705a3          	sb	a1,11(a4)
     26a:	00b70523          	sb	a1,10(a4)
     26e:	00b704a3          	sb	a1,9(a4)
     272:	00b70423          	sb	a1,8(a4)
     276:	00b703a3          	sb	a1,7(a4)
     27a:	00b70323          	sb	a1,6(a4)
     27e:	00b702a3          	sb	a1,5(a4)
     282:	00b70223          	sb	a1,4(a4)
     286:	00b701a3          	sb	a1,3(a4)
     28a:	00b70123          	sb	a1,2(a4)
     28e:	00b700a3          	sb	a1,1(a4)
     292:	00b70023          	sb	a1,0(a4)
     296:	8082                	ret
     298:	0ff5f593          	andi	a1,a1,255
     29c:	00859693          	slli	a3,a1,0x8
     2a0:	8dd5                	or	a1,a1,a3
     2a2:	01059693          	slli	a3,a1,0x10
     2a6:	8dd5                	or	a1,a1,a3
     2a8:	b761                	j	230 <memset+0x10>
     2aa:	00279693          	slli	a3,a5,0x2
     2ae:	00000297          	auipc	t0,0x0
     2b2:	9696                	add	a3,a3,t0
     2b4:	8286                	mv	t0,ra
     2b6:	fa8680e7          	jalr	-88(a3)
     2ba:	8096                	mv	ra,t0
     2bc:	17c1                	addi	a5,a5,-16
     2be:	8f1d                	sub	a4,a4,a5
     2c0:	963e                	add	a2,a2,a5
     2c2:	f8c374e3          	bgeu	t1,a2,24a <memset+0x2a>
     2c6:	b7a5                	j	22e <memset+0xe>

000002c8 <NMI_Handler>:
     2c8:	a001                	j	2c8 <NMI_Handler>

000002ca <HardFault_Handler>:
     2ca:	beef07b7          	lui	a5,0xbeef0
     2ce:	e000e737          	lui	a4,0xe000e
     2d2:	08078793          	addi	a5,a5,128 # beef0080 <_eusrstack+0x9eee8080>
     2d6:	c73c                	sw	a5,72(a4)
     2d8:	a001                	j	2d8 <HardFault_Handler+0xe>

000002da <main>:
     2da:	efdff2ef          	jal	t0,1d6 <__riscv_save_4>
     2de:	1141                	addi	sp,sp,-16
     2e0:	284d                	jal	392 <SystemInit>
     2e2:	4509                	li	a0,2
     2e4:	210d                	jal	706 <NVIC_PriorityGroupConfig>
     2e6:	225d                	jal	48c <SystemCoreClockUpdate>
     2e8:	663000ef          	jal	ra,114a <Delay_Init>
     2ec:	6571                	lui	a0,0x1c
     2ee:	20050513          	addi	a0,a0,512 # 1c200 <_data_lma+0x19120>
     2f2:	6ef000ef          	jal	ra,11e0 <USART_Printf_Init>
     2f6:	521000ef          	jal	ra,1016 <Driver_USART2_Init>
     2fa:	14d000ef          	jal	ra,c46 <atk_ms6050_init>
     2fe:	89aa                	mv	s3,a0
     300:	00210513          	addi	a0,sp,2
     304:	063000ef          	jal	ra,b66 <atk_ms6050_get_temperature>
     308:	0030                	addi	a2,sp,8
     30a:	00610593          	addi	a1,sp,6
     30e:	892a                	mv	s2,a0
     310:	0048                	addi	a0,sp,4
     312:	0b1000ef          	jal	ra,bc2 <atk_ms6050_get_gyroscope>
     316:	84aa                	mv	s1,a0
     318:	00e10613          	addi	a2,sp,14
     31c:	006c                	addi	a1,sp,12
     31e:	00a10513          	addi	a0,sp,10
     322:	0e3000ef          	jal	ra,c04 <atk_ms6050_get_accelerometer>
     326:	842a                	mv	s0,a0
     328:	02099f63          	bnez	s3,366 <main+0x8c>
     32c:	00003537          	lui	a0,0x3
     330:	db450513          	addi	a0,a0,-588 # 2db4 <_read+0xc>
     334:	1a9010ef          	jal	ra,1cdc <iprintf>
     338:	02091c63          	bnez	s2,370 <main+0x96>
     33c:	00003537          	lui	a0,0x3
     340:	ddc50513          	addi	a0,a0,-548 # 2ddc <_read+0x34>
     344:	199010ef          	jal	ra,1cdc <iprintf>
     348:	e88d                	bnez	s1,37a <main+0xa0>
     34a:	00003537          	lui	a0,0x3
     34e:	e1050513          	addi	a0,a0,-496 # 2e10 <_read+0x68>
     352:	18b010ef          	jal	ra,1cdc <iprintf>
     356:	e41d                	bnez	s0,384 <main+0xaa>
     358:	00003537          	lui	a0,0x3
     35c:	e4450513          	addi	a0,a0,-444 # 2e44 <_read+0x9c>
     360:	17d010ef          	jal	ra,1cdc <iprintf>
     364:	a001                	j	364 <main+0x8a>
     366:	00003537          	lui	a0,0x3
     36a:	dc850513          	addi	a0,a0,-568 # 2dc8 <_read+0x20>
     36e:	b7d9                	j	334 <main+0x5a>
     370:	00003537          	lui	a0,0x3
     374:	df850513          	addi	a0,a0,-520 # 2df8 <_read+0x50>
     378:	b7f1                	j	344 <main+0x6a>
     37a:	00003537          	lui	a0,0x3
     37e:	e2c50513          	addi	a0,a0,-468 # 2e2c <_read+0x84>
     382:	bfc1                	j	352 <main+0x78>
     384:	00003537          	lui	a0,0x3
     388:	e6050513          	addi	a0,a0,-416 # 2e60 <_read+0xb8>
     38c:	151010ef          	jal	ra,1cdc <iprintf>
     390:	bfd1                	j	364 <main+0x8a>

00000392 <SystemInit>:
     392:	400217b7          	lui	a5,0x40021
     396:	4398                	lw	a4,0(a5)
     398:	f0ff06b7          	lui	a3,0xf0ff0
     39c:	1141                	addi	sp,sp,-16
     39e:	00176713          	ori	a4,a4,1
     3a2:	c398                	sw	a4,0(a5)
     3a4:	43d8                	lw	a4,4(a5)
     3a6:	00020637          	lui	a2,0x20
     3aa:	8f75                	and	a4,a4,a3
     3ac:	c3d8                	sw	a4,4(a5)
     3ae:	4398                	lw	a4,0(a5)
     3b0:	fef706b7          	lui	a3,0xfef70
     3b4:	16fd                	addi	a3,a3,-1
     3b6:	8f75                	and	a4,a4,a3
     3b8:	c398                	sw	a4,0(a5)
     3ba:	4398                	lw	a4,0(a5)
     3bc:	fffc06b7          	lui	a3,0xfffc0
     3c0:	16fd                	addi	a3,a3,-1
     3c2:	8f75                	and	a4,a4,a3
     3c4:	c398                	sw	a4,0(a5)
     3c6:	43d8                	lw	a4,4(a5)
     3c8:	ff0106b7          	lui	a3,0xff010
     3cc:	16fd                	addi	a3,a3,-1
     3ce:	8f75                	and	a4,a4,a3
     3d0:	c3d8                	sw	a4,4(a5)
     3d2:	4398                	lw	a4,0(a5)
     3d4:	ec0006b7          	lui	a3,0xec000
     3d8:	16fd                	addi	a3,a3,-1
     3da:	8f75                	and	a4,a4,a3
     3dc:	c398                	sw	a4,0(a5)
     3de:	00ff0737          	lui	a4,0xff0
     3e2:	c798                	sw	a4,8(a5)
     3e4:	0207a623          	sw	zero,44(a5) # 4002102c <_eusrstack+0x2001902c>
     3e8:	c402                	sw	zero,8(sp)
     3ea:	c602                	sw	zero,12(sp)
     3ec:	4398                	lw	a4,0(a5)
     3ee:	66c1                	lui	a3,0x10
     3f0:	8f55                	or	a4,a4,a3
     3f2:	c398                	sw	a4,0(a5)
     3f4:	400216b7          	lui	a3,0x40021
     3f8:	6705                	lui	a4,0x1
     3fa:	429c                	lw	a5,0(a3)
     3fc:	8ff1                	and	a5,a5,a2
     3fe:	c63e                	sw	a5,12(sp)
     400:	47a2                	lw	a5,8(sp)
     402:	0785                	addi	a5,a5,1
     404:	c43e                	sw	a5,8(sp)
     406:	47b2                	lw	a5,12(sp)
     408:	e781                	bnez	a5,410 <SystemInit+0x7e>
     40a:	47a2                	lw	a5,8(sp)
     40c:	fee797e3          	bne	a5,a4,3fa <SystemInit+0x68>
     410:	400217b7          	lui	a5,0x40021
     414:	439c                	lw	a5,0(a5)
     416:	00e79713          	slli	a4,a5,0xe
     41a:	06075763          	bgez	a4,488 <SystemInit+0xf6>
     41e:	4785                	li	a5,1
     420:	c63e                	sw	a5,12(sp)
     422:	4732                	lw	a4,12(sp)
     424:	4785                	li	a5,1
     426:	04f71f63          	bne	a4,a5,484 <SystemInit+0xf2>
     42a:	400217b7          	lui	a5,0x40021
     42e:	43d8                	lw	a4,4(a5)
     430:	ffc106b7          	lui	a3,0xffc10
     434:	16fd                	addi	a3,a3,-1
     436:	c3d8                	sw	a4,4(a5)
     438:	43d8                	lw	a4,4(a5)
     43a:	c3d8                	sw	a4,4(a5)
     43c:	43d8                	lw	a4,4(a5)
     43e:	40076713          	ori	a4,a4,1024
     442:	c3d8                	sw	a4,4(a5)
     444:	43d8                	lw	a4,4(a5)
     446:	8f75                	and	a4,a4,a3
     448:	c3d8                	sw	a4,4(a5)
     44a:	43d8                	lw	a4,4(a5)
     44c:	002906b7          	lui	a3,0x290
     450:	8f55                	or	a4,a4,a3
     452:	c3d8                	sw	a4,4(a5)
     454:	4398                	lw	a4,0(a5)
     456:	010006b7          	lui	a3,0x1000
     45a:	8f55                	or	a4,a4,a3
     45c:	c398                	sw	a4,0(a5)
     45e:	4398                	lw	a4,0(a5)
     460:	00671693          	slli	a3,a4,0x6
     464:	fe06dde3          	bgez	a3,45e <SystemInit+0xcc>
     468:	43d8                	lw	a4,4(a5)
     46a:	400216b7          	lui	a3,0x40021
     46e:	9b71                	andi	a4,a4,-4
     470:	c3d8                	sw	a4,4(a5)
     472:	43d8                	lw	a4,4(a5)
     474:	00276713          	ori	a4,a4,2
     478:	c3d8                	sw	a4,4(a5)
     47a:	4721                	li	a4,8
     47c:	42dc                	lw	a5,4(a3)
     47e:	8bb1                	andi	a5,a5,12
     480:	fee79ee3          	bne	a5,a4,47c <SystemInit+0xea>
     484:	0141                	addi	sp,sp,16
     486:	8082                	ret
     488:	c602                	sw	zero,12(sp)
     48a:	bf61                	j	422 <SystemInit+0x90>

0000048c <SystemCoreClockUpdate>:
     48c:	400216b7          	lui	a3,0x40021
     490:	42d8                	lw	a4,4(a3)
     492:	200007b7          	lui	a5,0x20000
     496:	4611                	li	a2,4
     498:	8b31                	andi	a4,a4,12
     49a:	08078793          	addi	a5,a5,128 # 20000080 <SystemCoreClock>
     49e:	00c70563          	beq	a4,a2,4a8 <SystemCoreClockUpdate+0x1c>
     4a2:	4621                	li	a2,8
     4a4:	02c70863          	beq	a4,a2,4d4 <SystemCoreClockUpdate+0x48>
     4a8:	007a1737          	lui	a4,0x7a1
     4ac:	20070713          	addi	a4,a4,512 # 7a1200 <_data_lma+0x79e120>
     4b0:	c398                	sw	a4,0(a5)
     4b2:	40021737          	lui	a4,0x40021
     4b6:	4358                	lw	a4,4(a4)
     4b8:	8311                	srli	a4,a4,0x4
     4ba:	00f77693          	andi	a3,a4,15
     4be:	20000737          	lui	a4,0x20000
     4c2:	00070713          	mv	a4,a4
     4c6:	9736                	add	a4,a4,a3
     4c8:	2314                	lbu	a3,0(a4)
     4ca:	4398                	lw	a4,0(a5)
     4cc:	00d75733          	srl	a4,a4,a3
     4d0:	c398                	sw	a4,0(a5)
     4d2:	8082                	ret
     4d4:	42d8                	lw	a4,4(a3)
     4d6:	42d4                	lw	a3,4(a3)
     4d8:	6641                	lui	a2,0x10
     4da:	8349                	srli	a4,a4,0x12
     4dc:	8b3d                	andi	a4,a4,15
     4de:	8ef1                	and	a3,a3,a2
     4e0:	00270613          	addi	a2,a4,2 # 20000002 <_data_vma+0x2>
     4e4:	cf15                	beqz	a4,520 <SystemCoreClockUpdate+0x94>
     4e6:	473d                	li	a4,15
     4e8:	02e60f63          	beq	a2,a4,526 <SystemCoreClockUpdate+0x9a>
     4ec:	4741                	li	a4,16
     4ee:	02e60f63          	beq	a2,a4,52c <SystemCoreClockUpdate+0xa0>
     4f2:	4745                	li	a4,17
     4f4:	4581                	li	a1,0
     4f6:	00e61363          	bne	a2,a4,4fc <SystemCoreClockUpdate+0x70>
     4fa:	4641                	li	a2,16
     4fc:	e2a1                	bnez	a3,53c <SystemCoreClockUpdate+0xb0>
     4fe:	40024737          	lui	a4,0x40024
     502:	80072703          	lw	a4,-2048(a4) # 40023800 <_eusrstack+0x2001b800>
     506:	8b41                	andi	a4,a4,16
     508:	c70d                	beqz	a4,532 <SystemCoreClockUpdate+0xa6>
     50a:	007a1737          	lui	a4,0x7a1
     50e:	20070713          	addi	a4,a4,512 # 7a1200 <_data_lma+0x79e120>
     512:	02c70633          	mul	a2,a4,a2
     516:	c390                	sw	a2,0(a5)
     518:	ddc9                	beqz	a1,4b2 <SystemCoreClockUpdate+0x26>
     51a:	4398                	lw	a4,0(a5)
     51c:	8305                	srli	a4,a4,0x1
     51e:	bf49                	j	4b0 <SystemCoreClockUpdate+0x24>
     520:	4581                	li	a1,0
     522:	4649                	li	a2,18
     524:	bfe1                	j	4fc <SystemCoreClockUpdate+0x70>
     526:	4585                	li	a1,1
     528:	4635                	li	a2,13
     52a:	bfc9                	j	4fc <SystemCoreClockUpdate+0x70>
     52c:	4581                	li	a1,0
     52e:	463d                	li	a2,15
     530:	b7f1                	j	4fc <SystemCoreClockUpdate+0x70>
     532:	003d1737          	lui	a4,0x3d1
     536:	90070713          	addi	a4,a4,-1792 # 3d0900 <_data_lma+0x3cd820>
     53a:	bfe1                	j	512 <SystemCoreClockUpdate+0x86>
     53c:	40021537          	lui	a0,0x40021
     540:	5558                	lw	a4,44(a0)
     542:	00f71693          	slli	a3,a4,0xf
     546:	5558                	lw	a4,44(a0)
     548:	0406df63          	bgez	a3,5a6 <SystemCoreClockUpdate+0x11a>
     54c:	8311                	srli	a4,a4,0x4
     54e:	8b3d                	andi	a4,a4,15
     550:	00170693          	addi	a3,a4,1
     554:	007a1737          	lui	a4,0x7a1
     558:	20070713          	addi	a4,a4,512 # 7a1200 <_data_lma+0x79e120>
     55c:	02d75733          	divu	a4,a4,a3
     560:	c398                	sw	a4,0(a5)
     562:	5554                	lw	a3,44(a0)
     564:	82a1                	srli	a3,a3,0x8
     566:	8abd                	andi	a3,a3,15
     568:	e28d                	bnez	a3,58a <SystemCoreClockUpdate+0xfe>
     56a:	4695                	li	a3,5
     56c:	02d70733          	mul	a4,a4,a3
     570:	8305                	srli	a4,a4,0x1
     572:	c398                	sw	a4,0(a5)
     574:	40021737          	lui	a4,0x40021
     578:	5758                	lw	a4,44(a4)
     57a:	4394                	lw	a3,0(a5)
     57c:	8b3d                	andi	a4,a4,15
     57e:	0705                	addi	a4,a4,1
     580:	02e6d733          	divu	a4,a3,a4
     584:	c398                	sw	a4,0(a5)
     586:	4398                	lw	a4,0(a5)
     588:	b769                	j	512 <SystemCoreClockUpdate+0x86>
     58a:	4505                	li	a0,1
     58c:	00a69463          	bne	a3,a0,594 <SystemCoreClockUpdate+0x108>
     590:	46e5                	li	a3,25
     592:	bfe9                	j	56c <SystemCoreClockUpdate+0xe0>
     594:	453d                	li	a0,15
     596:	00a69663          	bne	a3,a0,5a2 <SystemCoreClockUpdate+0x116>
     59a:	46d1                	li	a3,20
     59c:	02e68733          	mul	a4,a3,a4
     5a0:	bfc9                	j	572 <SystemCoreClockUpdate+0xe6>
     5a2:	0689                	addi	a3,a3,2
     5a4:	bfe5                	j	59c <SystemCoreClockUpdate+0x110>
     5a6:	8b3d                	andi	a4,a4,15
     5a8:	00170693          	addi	a3,a4,1 # 40021001 <_eusrstack+0x20019001>
     5ac:	007a1737          	lui	a4,0x7a1
     5b0:	20070713          	addi	a4,a4,512 # 7a1200 <_data_lma+0x79e120>
     5b4:	02d75733          	divu	a4,a4,a3
     5b8:	b7f1                	j	584 <SystemCoreClockUpdate+0xf8>

000005ba <ADC1_2_IRQHandler>:
     5ba:	a001                	j	5ba <ADC1_2_IRQHandler>

000005bc <handle_reset>:
     5bc:	20000197          	auipc	gp,0x20000
     5c0:	2c418193          	addi	gp,gp,708 # 20000880 <__global_pointer$>
     5c4:	20008117          	auipc	sp,0x20008
     5c8:	a3c10113          	addi	sp,sp,-1476 # 20008000 <_eusrstack>
     5cc:	00003517          	auipc	a0,0x3
     5d0:	b1450513          	addi	a0,a0,-1260 # 30e0 <_data_lma>
     5d4:	20000597          	auipc	a1,0x20000
     5d8:	a2c58593          	addi	a1,a1,-1492 # 20000000 <_data_vma>
     5dc:	81818613          	addi	a2,gp,-2024 # 20000098 <_edata>
     5e0:	00c5fa63          	bgeu	a1,a2,5f4 <handle_reset+0x38>
     5e4:	00052283          	lw	t0,0(a0)
     5e8:	0055a023          	sw	t0,0(a1)
     5ec:	0511                	addi	a0,a0,4
     5ee:	0591                	addi	a1,a1,4
     5f0:	fec5eae3          	bltu	a1,a2,5e4 <handle_reset+0x28>
     5f4:	81818513          	addi	a0,gp,-2024 # 20000098 <_edata>
     5f8:	89818593          	addi	a1,gp,-1896 # 20000118 <_ebss>
     5fc:	00b57763          	bgeu	a0,a1,60a <handle_reset+0x4e>
     600:	00052023          	sw	zero,0(a0)
     604:	0511                	addi	a0,a0,4
     606:	feb56de3          	bltu	a0,a1,600 <handle_reset+0x44>
     60a:	42fd                	li	t0,31
     60c:	bc029073          	csrw	0xbc0,t0
     610:	42ad                	li	t0,11
     612:	80429073          	csrw	0x804,t0
     616:	000062b7          	lui	t0,0x6
     61a:	08828293          	addi	t0,t0,136 # 6088 <_data_lma+0x2fa8>
     61e:	30029073          	csrw	mstatus,t0
     622:	00000297          	auipc	t0,0x0
     626:	9e228293          	addi	t0,t0,-1566 # 4 <_einit>
     62a:	0032e293          	ori	t0,t0,3
     62e:	30529073          	csrw	mtvec,t0
     632:	d61ff0ef          	jal	ra,392 <SystemInit>
     636:	00000297          	auipc	t0,0x0
     63a:	ca428293          	addi	t0,t0,-860 # 2da <main>
     63e:	34129073          	csrw	mepc,t0
     642:	30200073          	mret

00000646 <GPIO_Init>:
     646:	459c                	lw	a5,8(a1)
     648:	0107f713          	andi	a4,a5,16
     64c:	00f7f813          	andi	a6,a5,15
     650:	c701                	beqz	a4,658 <GPIO_Init+0x12>
     652:	41d8                	lw	a4,4(a1)
     654:	00e86833          	or	a6,a6,a4
     658:	218e                	lhu	a1,0(a1)
     65a:	0ff5f713          	andi	a4,a1,255
     65e:	c339                	beqz	a4,6a4 <GPIO_Init+0x5e>
     660:	4118                	lw	a4,0(a0)
     662:	4681                	li	a3,0
     664:	4e85                	li	t4,1
     666:	4f3d                	li	t5,15
     668:	02800f93          	li	t6,40
     66c:	04800293          	li	t0,72
     670:	4e21                	li	t3,8
     672:	00de9633          	sll	a2,t4,a3
     676:	00c5f8b3          	and	a7,a1,a2
     67a:	03161163          	bne	a2,a7,69c <GPIO_Init+0x56>
     67e:	00269893          	slli	a7,a3,0x2
     682:	011f1333          	sll	t1,t5,a7
     686:	fff34313          	not	t1,t1
     68a:	00e37733          	and	a4,t1,a4
     68e:	011818b3          	sll	a7,a6,a7
     692:	00e8e733          	or	a4,a7,a4
     696:	05f79f63          	bne	a5,t6,6f4 <GPIO_Init+0xae>
     69a:	c950                	sw	a2,20(a0)
     69c:	0685                	addi	a3,a3,1
     69e:	fdc69ae3          	bne	a3,t3,672 <GPIO_Init+0x2c>
     6a2:	c118                	sw	a4,0(a0)
     6a4:	0ff00713          	li	a4,255
     6a8:	04b77563          	bgeu	a4,a1,6f2 <GPIO_Init+0xac>
     6ac:	4154                	lw	a3,4(a0)
     6ae:	4621                	li	a2,8
     6b0:	4e85                	li	t4,1
     6b2:	4f3d                	li	t5,15
     6b4:	02800f93          	li	t6,40
     6b8:	04800293          	li	t0,72
     6bc:	4e41                	li	t3,16
     6be:	00ce98b3          	sll	a7,t4,a2
     6c2:	0115f733          	and	a4,a1,a7
     6c6:	02e89263          	bne	a7,a4,6ea <GPIO_Init+0xa4>
     6ca:	00261713          	slli	a4,a2,0x2
     6ce:	1701                	addi	a4,a4,-32
     6d0:	00ef1333          	sll	t1,t5,a4
     6d4:	fff34313          	not	t1,t1
     6d8:	00d376b3          	and	a3,t1,a3
     6dc:	00e81733          	sll	a4,a6,a4
     6e0:	8ed9                	or	a3,a3,a4
     6e2:	01f79d63          	bne	a5,t6,6fc <GPIO_Init+0xb6>
     6e6:	01152a23          	sw	a7,20(a0)
     6ea:	0605                	addi	a2,a2,1
     6ec:	fdc619e3          	bne	a2,t3,6be <GPIO_Init+0x78>
     6f0:	c154                	sw	a3,4(a0)
     6f2:	8082                	ret
     6f4:	fa5794e3          	bne	a5,t0,69c <GPIO_Init+0x56>
     6f8:	c910                	sw	a2,16(a0)
     6fa:	b74d                	j	69c <GPIO_Init+0x56>
     6fc:	fe5797e3          	bne	a5,t0,6ea <GPIO_Init+0xa4>
     700:	01152823          	sw	a7,16(a0)
     704:	b7dd                	j	6ea <GPIO_Init+0xa4>

00000706 <NVIC_PriorityGroupConfig>:
     706:	80a1ac23          	sw	a0,-2024(gp) # 20000098 <_edata>
     70a:	8082                	ret

0000070c <NVIC_Init>:
     70c:	8181a703          	lw	a4,-2024(gp) # 20000098 <_edata>
     710:	4789                	li	a5,2
     712:	2110                	lbu	a2,0(a0)
     714:	02f71163          	bne	a4,a5,736 <NVIC_Init+0x2a>
     718:	3114                	lbu	a3,1(a0)
     71a:	478d                	li	a5,3
     71c:	00d7ed63          	bltu	a5,a3,736 <NVIC_Init+0x2a>
     720:	213c                	lbu	a5,2(a0)
     722:	069a                	slli	a3,a3,0x6
     724:	e000e737          	lui	a4,0xe000e
     728:	0796                	slli	a5,a5,0x5
     72a:	8fd5                	or	a5,a5,a3
     72c:	0ff7f793          	andi	a5,a5,255
     730:	9732                	add	a4,a4,a2
     732:	40f70023          	sb	a5,1024(a4) # e000e400 <_eusrstack+0xc0006400>
     736:	4154                	lw	a3,4(a0)
     738:	4705                	li	a4,1
     73a:	00565793          	srli	a5,a2,0x5
     73e:	00c71733          	sll	a4,a4,a2
     742:	ca89                	beqz	a3,754 <NVIC_Init+0x48>
     744:	04078793          	addi	a5,a5,64
     748:	078a                	slli	a5,a5,0x2
     74a:	e000e6b7          	lui	a3,0xe000e
     74e:	97b6                	add	a5,a5,a3
     750:	c398                	sw	a4,0(a5)
     752:	8082                	ret
     754:	06078793          	addi	a5,a5,96
     758:	bfc5                	j	748 <NVIC_Init+0x3c>

0000075a <RCC_GetClocksFreq>:
     75a:	40021737          	lui	a4,0x40021
     75e:	435c                	lw	a5,4(a4)
     760:	4691                	li	a3,4
     762:	8bb1                	andi	a5,a5,12
     764:	00d78563          	beq	a5,a3,76e <RCC_GetClocksFreq+0x14>
     768:	46a1                	li	a3,8
     76a:	06d78263          	beq	a5,a3,7ce <RCC_GetClocksFreq+0x74>
     76e:	007a17b7          	lui	a5,0x7a1
     772:	20078793          	addi	a5,a5,512 # 7a1200 <_data_lma+0x79e120>
     776:	c11c                	sw	a5,0(a0)
     778:	40021637          	lui	a2,0x40021
     77c:	425c                	lw	a5,4(a2)
     77e:	20000737          	lui	a4,0x20000
     782:	01070713          	addi	a4,a4,16 # 20000010 <APBAHBPrescTable>
     786:	8391                	srli	a5,a5,0x4
     788:	8bbd                	andi	a5,a5,15
     78a:	97ba                	add	a5,a5,a4
     78c:	2394                	lbu	a3,0(a5)
     78e:	411c                	lw	a5,0(a0)
     790:	00d7d7b3          	srl	a5,a5,a3
     794:	c15c                	sw	a5,4(a0)
     796:	4254                	lw	a3,4(a2)
     798:	82a1                	srli	a3,a3,0x8
     79a:	8a9d                	andi	a3,a3,7
     79c:	96ba                	add	a3,a3,a4
     79e:	2294                	lbu	a3,0(a3)
     7a0:	00d7d6b3          	srl	a3,a5,a3
     7a4:	c514                	sw	a3,8(a0)
     7a6:	4254                	lw	a3,4(a2)
     7a8:	82ad                	srli	a3,a3,0xb
     7aa:	8a9d                	andi	a3,a3,7
     7ac:	9736                	add	a4,a4,a3
     7ae:	2318                	lbu	a4,0(a4)
     7b0:	00e7d7b3          	srl	a5,a5,a4
     7b4:	c55c                	sw	a5,12(a0)
     7b6:	4258                	lw	a4,4(a2)
     7b8:	8339                	srli	a4,a4,0xe
     7ba:	00377693          	andi	a3,a4,3
     7be:	80418713          	addi	a4,gp,-2044 # 20000084 <ADCPrescTable>
     7c2:	9736                	add	a4,a4,a3
     7c4:	2318                	lbu	a4,0(a4)
     7c6:	02e7d7b3          	divu	a5,a5,a4
     7ca:	c91c                	sw	a5,16(a0)
     7cc:	8082                	ret
     7ce:	435c                	lw	a5,4(a4)
     7d0:	4358                	lw	a4,4(a4)
     7d2:	66c1                	lui	a3,0x10
     7d4:	83c9                	srli	a5,a5,0x12
     7d6:	8f75                	and	a4,a4,a3
     7d8:	1ffff6b7          	lui	a3,0x1ffff
     7dc:	70c6a683          	lw	a3,1804(a3) # 1ffff70c <_data_lma+0x1fffc62c>
     7e0:	8bbd                	andi	a5,a5,15
     7e2:	0789                	addi	a5,a5,2
     7e4:	01169613          	slli	a2,a3,0x11
     7e8:	00064863          	bltz	a2,7f8 <RCC_GetClocksFreq+0x9e>
     7ec:	46c5                	li	a3,17
     7ee:	4601                	li	a2,0
     7f0:	02d79263          	bne	a5,a3,814 <__stack_size+0x14>
     7f4:	47c9                	li	a5,18
     7f6:	a839                	j	814 <__stack_size+0x14>
     7f8:	4689                	li	a3,2
     7fa:	02d78f63          	beq	a5,a3,838 <__stack_size+0x38>
     7fe:	46bd                	li	a3,15
     800:	02d78e63          	beq	a5,a3,83c <__stack_size+0x3c>
     804:	46c1                	li	a3,16
     806:	02d78e63          	beq	a5,a3,842 <__stack_size+0x42>
     80a:	46c5                	li	a3,17
     80c:	4601                	li	a2,0
     80e:	00d79363          	bne	a5,a3,814 <__stack_size+0x14>
     812:	47c1                	li	a5,16
     814:	ef1d                	bnez	a4,852 <__stack_size+0x52>
     816:	40024737          	lui	a4,0x40024
     81a:	80072703          	lw	a4,-2048(a4) # 40023800 <_eusrstack+0x2001b800>
     81e:	8b41                	andi	a4,a4,16
     820:	c705                	beqz	a4,848 <__stack_size+0x48>
     822:	007a1737          	lui	a4,0x7a1
     826:	20070713          	addi	a4,a4,512 # 7a1200 <_data_lma+0x79e120>
     82a:	02f707b3          	mul	a5,a4,a5
     82e:	c11c                	sw	a5,0(a0)
     830:	d621                	beqz	a2,778 <RCC_GetClocksFreq+0x1e>
     832:	411c                	lw	a5,0(a0)
     834:	8385                	srli	a5,a5,0x1
     836:	b781                	j	776 <RCC_GetClocksFreq+0x1c>
     838:	4601                	li	a2,0
     83a:	bf6d                	j	7f4 <RCC_GetClocksFreq+0x9a>
     83c:	4605                	li	a2,1
     83e:	47b5                	li	a5,13
     840:	bfd1                	j	814 <__stack_size+0x14>
     842:	4601                	li	a2,0
     844:	47bd                	li	a5,15
     846:	b7f9                	j	814 <__stack_size+0x14>
     848:	003d1737          	lui	a4,0x3d1
     84c:	90070713          	addi	a4,a4,-1792 # 3d0900 <_data_lma+0x3cd820>
     850:	bfe9                	j	82a <__stack_size+0x2a>
     852:	400215b7          	lui	a1,0x40021
     856:	55d8                	lw	a4,44(a1)
     858:	00f71693          	slli	a3,a4,0xf
     85c:	55d8                	lw	a4,44(a1)
     85e:	0406df63          	bgez	a3,8bc <__stack_size+0xbc>
     862:	8311                	srli	a4,a4,0x4
     864:	8b3d                	andi	a4,a4,15
     866:	00170693          	addi	a3,a4,1
     86a:	007a1737          	lui	a4,0x7a1
     86e:	20070713          	addi	a4,a4,512 # 7a1200 <_data_lma+0x79e120>
     872:	02d75733          	divu	a4,a4,a3
     876:	c118                	sw	a4,0(a0)
     878:	55d4                	lw	a3,44(a1)
     87a:	82a1                	srli	a3,a3,0x8
     87c:	8abd                	andi	a3,a3,15
     87e:	e28d                	bnez	a3,8a0 <__stack_size+0xa0>
     880:	4695                	li	a3,5
     882:	02d70733          	mul	a4,a4,a3
     886:	8305                	srli	a4,a4,0x1
     888:	c118                	sw	a4,0(a0)
     88a:	40021737          	lui	a4,0x40021
     88e:	5758                	lw	a4,44(a4)
     890:	4114                	lw	a3,0(a0)
     892:	8b3d                	andi	a4,a4,15
     894:	0705                	addi	a4,a4,1
     896:	02e6d733          	divu	a4,a3,a4
     89a:	c118                	sw	a4,0(a0)
     89c:	4118                	lw	a4,0(a0)
     89e:	b771                	j	82a <__stack_size+0x2a>
     8a0:	4585                	li	a1,1
     8a2:	00b69463          	bne	a3,a1,8aa <__stack_size+0xaa>
     8a6:	46e5                	li	a3,25
     8a8:	bfe9                	j	882 <__stack_size+0x82>
     8aa:	45bd                	li	a1,15
     8ac:	00b69663          	bne	a3,a1,8b8 <__stack_size+0xb8>
     8b0:	46d1                	li	a3,20
     8b2:	02e68733          	mul	a4,a3,a4
     8b6:	bfc9                	j	888 <__stack_size+0x88>
     8b8:	0689                	addi	a3,a3,2
     8ba:	bfe5                	j	8b2 <__stack_size+0xb2>
     8bc:	8b3d                	andi	a4,a4,15
     8be:	00170693          	addi	a3,a4,1 # 40021001 <_eusrstack+0x20019001>
     8c2:	007a1737          	lui	a4,0x7a1
     8c6:	20070713          	addi	a4,a4,512 # 7a1200 <_data_lma+0x79e120>
     8ca:	02d75733          	divu	a4,a4,a3
     8ce:	b7f1                	j	89a <__stack_size+0x9a>

000008d0 <RCC_APB2PeriphClockCmd>:
     8d0:	c599                	beqz	a1,8de <RCC_APB2PeriphClockCmd+0xe>
     8d2:	40021737          	lui	a4,0x40021
     8d6:	4f1c                	lw	a5,24(a4)
     8d8:	8d5d                	or	a0,a0,a5
     8da:	cf08                	sw	a0,24(a4)
     8dc:	8082                	ret
     8de:	400217b7          	lui	a5,0x40021
     8e2:	4f98                	lw	a4,24(a5)
     8e4:	fff54513          	not	a0,a0
     8e8:	8d79                	and	a0,a0,a4
     8ea:	cf88                	sw	a0,24(a5)
     8ec:	8082                	ret

000008ee <USART_Init>:
     8ee:	903ff2ef          	jal	t0,1f0 <__riscv_save_0>
     8f2:	2916                	lhu	a3,16(a0)
     8f4:	77f5                	lui	a5,0xffffd
     8f6:	17fd                	addi	a5,a5,-1
     8f8:	8ff5                	and	a5,a5,a3
     8fa:	21f6                	lhu	a3,6(a1)
     8fc:	25da                	lhu	a4,12(a1)
     8fe:	7179                	addi	sp,sp,-48
     900:	8fd5                	or	a5,a5,a3
     902:	a91e                	sh	a5,16(a0)
     904:	2556                	lhu	a3,12(a0)
     906:	77fd                	lui	a5,0xfffff
     908:	9f378793          	addi	a5,a5,-1549 # ffffe9f3 <_eusrstack+0xdfff69f3>
     90c:	8ff5                	and	a5,a5,a3
     90e:	21d6                	lhu	a3,4(a1)
     910:	842a                	mv	s0,a0
     912:	c62e                	sw	a1,12(sp)
     914:	8fd5                	or	a5,a5,a3
     916:	2596                	lhu	a3,8(a1)
     918:	8fd5                	or	a5,a5,a3
     91a:	25b6                	lhu	a3,10(a1)
     91c:	8fd5                	or	a5,a5,a3
     91e:	a55e                	sh	a5,12(a0)
     920:	295e                	lhu	a5,20(a0)
     922:	07c2                	slli	a5,a5,0x10
     924:	83c1                	srli	a5,a5,0x10
     926:	cff7f793          	andi	a5,a5,-769
     92a:	8fd9                	or	a5,a5,a4
     92c:	a95e                	sh	a5,20(a0)
     92e:	0868                	addi	a0,sp,28
     930:	352d                	jal	75a <RCC_GetClocksFreq>
     932:	400147b7          	lui	a5,0x40014
     936:	80078793          	addi	a5,a5,-2048 # 40013800 <_eusrstack+0x2000b800>
     93a:	45b2                	lw	a1,12(sp)
     93c:	02f41d63          	bne	s0,a5,976 <USART_Init+0x88>
     940:	57a2                	lw	a5,40(sp)
     942:	4765                	li	a4,25
     944:	02e787b3          	mul	a5,a5,a4
     948:	4198                	lw	a4,0(a1)
     94a:	06400693          	li	a3,100
     94e:	070a                	slli	a4,a4,0x2
     950:	02e7d7b3          	divu	a5,a5,a4
     954:	02d7d733          	divu	a4,a5,a3
     958:	02d7f7b3          	remu	a5,a5,a3
     95c:	0712                	slli	a4,a4,0x4
     95e:	0792                	slli	a5,a5,0x4
     960:	03278793          	addi	a5,a5,50
     964:	02d7d7b3          	divu	a5,a5,a3
     968:	8bbd                	andi	a5,a5,15
     96a:	8fd9                	or	a5,a5,a4
     96c:	07c2                	slli	a5,a5,0x10
     96e:	83c1                	srli	a5,a5,0x10
     970:	a41e                	sh	a5,8(s0)
     972:	6145                	addi	sp,sp,48
     974:	b045                	j	214 <__riscv_restore_0>
     976:	5792                	lw	a5,36(sp)
     978:	b7e9                	j	942 <USART_Init+0x54>

0000097a <USART_Cmd>:
     97a:	c591                	beqz	a1,986 <USART_Cmd+0xc>
     97c:	255e                	lhu	a5,12(a0)
     97e:	6709                	lui	a4,0x2
     980:	8fd9                	or	a5,a5,a4
     982:	a55e                	sh	a5,12(a0)
     984:	8082                	ret
     986:	255a                	lhu	a4,12(a0)
     988:	77f9                	lui	a5,0xffffe
     98a:	17fd                	addi	a5,a5,-1
     98c:	8ff9                	and	a5,a5,a4
     98e:	bfd5                	j	982 <USART_Cmd+0x8>

00000990 <USART_SendData>:
     990:	1ff5f593          	andi	a1,a1,511
     994:	a14e                	sh	a1,4(a0)
     996:	8082                	ret

00000998 <USART_GetFlagStatus>:
     998:	210a                	lhu	a0,0(a0)
     99a:	8d6d                	and	a0,a0,a1
     99c:	00a03533          	snez	a0,a0
     9a0:	8082                	ret

000009a2 <atk_ms6050_write>:
     9a2:	84fff2ef          	jal	t0,1f0 <__riscv_save_0>
     9a6:	1141                	addi	sp,sp,-16
     9a8:	c42e                	sw	a1,8(sp)
     9aa:	84b2                	mv	s1,a2
     9ac:	8436                	mv	s0,a3
     9ae:	c62a                	sw	a0,12(sp)
     9b0:	2e51                	jal	d44 <Driver_I2C2_Start>
     9b2:	4532                	lw	a0,12(sp)
     9b4:	4905                	li	s2,1
     9b6:	0506                	slli	a0,a0,0x1
     9b8:	0fe57513          	andi	a0,a0,254
     9bc:	21d9                	jal	e82 <Driver_I2C_SendByte>
     9be:	29bd                	jal	e3c <Driver_I2C2_WaitAck>
     9c0:	45a2                	lw	a1,8(sp)
     9c2:	01251763          	bne	a0,s2,9d0 <atk_ms6050_write+0x2e>
     9c6:	2e45                	jal	d76 <Driver_I2C2_Stop>
     9c8:	4509                	li	a0,2
     9ca:	0141                	addi	sp,sp,16
     9cc:	849ff06f          	j	214 <__riscv_restore_0>
     9d0:	852e                	mv	a0,a1
     9d2:	2945                	jal	e82 <Driver_I2C_SendByte>
     9d4:	21a5                	jal	e3c <Driver_I2C2_WaitAck>
     9d6:	ff2508e3          	beq	a0,s2,9c6 <atk_ms6050_write+0x24>
     9da:	94a2                	add	s1,s1,s0
     9dc:	4905                	li	s2,1
     9de:	00849563          	bne	s1,s0,9e8 <atk_ms6050_write+0x46>
     9e2:	2e51                	jal	d76 <Driver_I2C2_Stop>
     9e4:	4501                	li	a0,0
     9e6:	b7d5                	j	9ca <atk_ms6050_write+0x28>
     9e8:	2008                	lbu	a0,0(s0)
     9ea:	0405                	addi	s0,s0,1
     9ec:	2959                	jal	e82 <Driver_I2C_SendByte>
     9ee:	21b9                	jal	e3c <Driver_I2C2_WaitAck>
     9f0:	ff2517e3          	bne	a0,s2,9de <atk_ms6050_write+0x3c>
     9f4:	bfc9                	j	9c6 <atk_ms6050_write+0x24>

000009f6 <atk_ms6050_write_byte>:
     9f6:	ffaff2ef          	jal	t0,1f0 <__riscv_save_0>
     9fa:	1141                	addi	sp,sp,-16
     9fc:	87d0                	sb	a2,15(sp)
     9fe:	00f10693          	addi	a3,sp,15
     a02:	4605                	li	a2,1
     a04:	3f79                	jal	9a2 <atk_ms6050_write>
     a06:	0141                	addi	sp,sp,16
     a08:	80dff06f          	j	214 <__riscv_restore_0>

00000a0c <atk_ms6050_read>:
     a0c:	fcaff2ef          	jal	t0,1d6 <__riscv_save_4>
     a10:	1141                	addi	sp,sp,-16
     a12:	84aa                	mv	s1,a0
     a14:	c62e                	sw	a1,12(sp)
     a16:	8432                	mv	s0,a2
     a18:	8936                	mv	s2,a3
     a1a:	0486                	slli	s1,s1,0x1
     a1c:	2625                	jal	d44 <Driver_I2C2_Start>
     a1e:	0fe4f513          	andi	a0,s1,254
     a22:	2185                	jal	e82 <Driver_I2C_SendByte>
     a24:	2921                	jal	e3c <Driver_I2C2_WaitAck>
     a26:	4985                	li	s3,1
     a28:	45b2                	lw	a1,12(sp)
     a2a:	01351863          	bne	a0,s3,a3a <atk_ms6050_read+0x2e>
     a2e:	26a1                	jal	d76 <Driver_I2C2_Stop>
     a30:	4409                	li	s0,2
     a32:	8522                	mv	a0,s0
     a34:	0141                	addi	sp,sp,16
     a36:	fd4ff06f          	j	20a <__riscv_restore_4>
     a3a:	852e                	mv	a0,a1
     a3c:	2199                	jal	e82 <Driver_I2C_SendByte>
     a3e:	2efd                	jal	e3c <Driver_I2C2_WaitAck>
     a40:	ff3507e3          	beq	a0,s3,a2e <atk_ms6050_read+0x22>
     a44:	2601                	jal	d44 <Driver_I2C2_Start>
     a46:	0014e513          	ori	a0,s1,1
     a4a:	0ff57513          	andi	a0,a0,255
     a4e:	2915                	jal	e82 <Driver_I2C_SendByte>
     a50:	26f5                	jal	e3c <Driver_I2C2_WaitAck>
     a52:	fd350ee3          	beq	a0,s3,a2e <atk_ms6050_read+0x22>
     a56:	e019                	bnez	s0,a5c <atk_ms6050_read+0x50>
     a58:	2e39                	jal	d76 <Driver_I2C2_Stop>
     a5a:	bfe1                	j	a32 <atk_ms6050_read+0x26>
     a5c:	00243513          	sltiu	a0,s0,2
     a60:	00154513          	xori	a0,a0,1
     a64:	2959                	jal	efa <Driver_I2C_ReadByteAck>
     a66:	147d                	addi	s0,s0,-1
     a68:	00a90023          	sb	a0,0(s2)
     a6c:	0ff47413          	andi	s0,s0,255
     a70:	0905                	addi	s2,s2,1
     a72:	b7d5                	j	a56 <atk_ms6050_read+0x4a>

00000a74 <atk_ms6050_read_byte>:
     a74:	f7cff2ef          	jal	t0,1f0 <__riscv_save_0>
     a78:	86b2                	mv	a3,a2
     a7a:	4605                	li	a2,1
     a7c:	3f41                	jal	a0c <atk_ms6050_read>
     a7e:	f96ff06f          	j	214 <__riscv_restore_0>

00000a82 <atk_ms6050_sw_reset>:
     a82:	f6eff2ef          	jal	t0,1f0 <__riscv_save_0>
     a86:	08000613          	li	a2,128
     a8a:	06b00593          	li	a1,107
     a8e:	06800513          	li	a0,104
     a92:	3795                	jal	9f6 <atk_ms6050_write_byte>
     a94:	06400513          	li	a0,100
     a98:	712000ef          	jal	ra,11aa <Delay_Ms>
     a9c:	4601                	li	a2,0
     a9e:	06b00593          	li	a1,107
     aa2:	06800513          	li	a0,104
     aa6:	3f81                	jal	9f6 <atk_ms6050_write_byte>
     aa8:	f6cff06f          	j	214 <__riscv_restore_0>

00000aac <atk_ms6050_set_gyro_fsr>:
     aac:	f44ff2ef          	jal	t0,1f0 <__riscv_save_0>
     ab0:	00351613          	slli	a2,a0,0x3
     ab4:	0f867613          	andi	a2,a2,248
     ab8:	45ed                	li	a1,27
     aba:	06800513          	li	a0,104
     abe:	3f25                	jal	9f6 <atk_ms6050_write_byte>
     ac0:	f54ff06f          	j	214 <__riscv_restore_0>

00000ac4 <atk_ms6050_set_accel_fsr>:
     ac4:	f2cff2ef          	jal	t0,1f0 <__riscv_save_0>
     ac8:	00351613          	slli	a2,a0,0x3
     acc:	0f867613          	andi	a2,a2,248
     ad0:	45f1                	li	a1,28
     ad2:	06800513          	li	a0,104
     ad6:	3705                	jal	9f6 <atk_ms6050_write_byte>
     ad8:	f3cff06f          	j	214 <__riscv_restore_0>

00000adc <atk_ms6050_set_lpf>:
     adc:	f14ff2ef          	jal	t0,1f0 <__riscv_save_0>
     ae0:	0bb00793          	li	a5,187
     ae4:	4605                	li	a2,1
     ae6:	02a7e563          	bltu	a5,a0,b10 <atk_ms6050_set_lpf+0x34>
     aea:	06100793          	li	a5,97
     aee:	4609                	li	a2,2
     af0:	02a7e063          	bltu	a5,a0,b10 <atk_ms6050_set_lpf+0x34>
     af4:	02900793          	li	a5,41
     af8:	460d                	li	a2,3
     afa:	00a7eb63          	bltu	a5,a0,b10 <atk_ms6050_set_lpf+0x34>
     afe:	47cd                	li	a5,19
     b00:	4611                	li	a2,4
     b02:	00a7e763          	bltu	a5,a0,b10 <atk_ms6050_set_lpf+0x34>
     b06:	47a5                	li	a5,9
     b08:	4615                	li	a2,5
     b0a:	00a7e363          	bltu	a5,a0,b10 <atk_ms6050_set_lpf+0x34>
     b0e:	4619                	li	a2,6
     b10:	45e9                	li	a1,26
     b12:	06800513          	li	a0,104
     b16:	35c5                	jal	9f6 <atk_ms6050_write_byte>
     b18:	efcff06f          	j	214 <__riscv_restore_0>

00000b1c <atk_ms6050_set_rate>:
     b1c:	ed4ff2ef          	jal	t0,1f0 <__riscv_save_0>
     b20:	4711                	li	a4,4
     b22:	4791                	li	a5,4
     b24:	00e56363          	bltu	a0,a4,b2a <atk_ms6050_set_rate+0xe>
     b28:	87aa                	mv	a5,a0
     b2a:	853e                	mv	a0,a5
     b2c:	01051713          	slli	a4,a0,0x10
     b30:	8341                	srli	a4,a4,0x10
     b32:	3e800793          	li	a5,1000
     b36:	00e7f463          	bgeu	a5,a4,b3e <atk_ms6050_set_rate+0x22>
     b3a:	3e800513          	li	a0,1000
     b3e:	01051413          	slli	s0,a0,0x10
     b42:	8041                	srli	s0,s0,0x10
     b44:	3e800613          	li	a2,1000
     b48:	02864633          	div	a2,a2,s0
     b4c:	45e5                	li	a1,25
     b4e:	06800513          	li	a0,104
     b52:	167d                	addi	a2,a2,-1
     b54:	0ff67613          	andi	a2,a2,255
     b58:	3d79                	jal	9f6 <atk_ms6050_write_byte>
     b5a:	e501                	bnez	a0,b62 <atk_ms6050_set_rate+0x46>
     b5c:	00145513          	srli	a0,s0,0x1
     b60:	3fb5                	jal	adc <atk_ms6050_set_lpf>
     b62:	eb2ff06f          	j	214 <__riscv_restore_0>

00000b66 <atk_ms6050_get_temperature>:
     b66:	e8aff2ef          	jal	t0,1f0 <__riscv_save_0>
     b6a:	1141                	addi	sp,sp,-16
     b6c:	84aa                	mv	s1,a0
     b6e:	0074                	addi	a3,sp,12
     b70:	4609                	li	a2,2
     b72:	04100593          	li	a1,65
     b76:	06800513          	li	a0,104
     b7a:	3d49                	jal	a0c <atk_ms6050_read>
     b7c:	842a                	mv	s0,a0
     b7e:	ed15                	bnez	a0,bba <atk_ms6050_get_temperature+0x54>
     b80:	8608                	lbu	a0,12(sp)
     b82:	869c                	lbu	a5,13(sp)
     b84:	0522                	slli	a0,a0,0x8
     b86:	8d5d                	or	a0,a0,a5
     b88:	0542                	slli	a0,a0,0x10
     b8a:	8541                	srai	a0,a0,0x10
     b8c:	01c010ef          	jal	ra,1ba8 <__floatsisf>
     b90:	000037b7          	lui	a5,0x3
     b94:	e787a583          	lw	a1,-392(a5) # 2e78 <_read+0xd0>
     b98:	271000ef          	jal	ra,1608 <__divsf3>
     b9c:	000037b7          	lui	a5,0x3
     ba0:	e7c7a583          	lw	a1,-388(a5) # 2e7c <_read+0xd4>
     ba4:	6fa000ef          	jal	ra,129e <__addsf3>
     ba8:	000037b7          	lui	a5,0x3
     bac:	e807a583          	lw	a1,-384(a5) # 2e80 <_read+0xd8>
     bb0:	507000ef          	jal	ra,18b6 <__mulsf3>
     bb4:	793000ef          	jal	ra,1b46 <__fixsfsi>
     bb8:	a08a                	sh	a0,0(s1)
     bba:	8522                	mv	a0,s0
     bbc:	0141                	addi	sp,sp,16
     bbe:	e56ff06f          	j	214 <__riscv_restore_0>

00000bc2 <atk_ms6050_get_gyroscope>:
     bc2:	e2eff2ef          	jal	t0,1f0 <__riscv_save_0>
     bc6:	1141                	addi	sp,sp,-16
     bc8:	892a                	mv	s2,a0
     bca:	84ae                	mv	s1,a1
     bcc:	8432                	mv	s0,a2
     bce:	0034                	addi	a3,sp,8
     bd0:	4619                	li	a2,6
     bd2:	04300593          	li	a1,67
     bd6:	06800513          	li	a0,104
     bda:	3d0d                	jal	a0c <atk_ms6050_read>
     bdc:	e10d                	bnez	a0,bfe <atk_ms6050_get_gyroscope+0x3c>
     bde:	841c                	lbu	a5,8(sp)
     be0:	8498                	lbu	a4,9(sp)
     be2:	07a2                	slli	a5,a5,0x8
     be4:	8fd9                	or	a5,a5,a4
     be6:	00f91023          	sh	a5,0(s2)
     bea:	851c                	lbu	a5,10(sp)
     bec:	8598                	lbu	a4,11(sp)
     bee:	07a2                	slli	a5,a5,0x8
     bf0:	8fd9                	or	a5,a5,a4
     bf2:	a09e                	sh	a5,0(s1)
     bf4:	861c                	lbu	a5,12(sp)
     bf6:	8698                	lbu	a4,13(sp)
     bf8:	07a2                	slli	a5,a5,0x8
     bfa:	8fd9                	or	a5,a5,a4
     bfc:	a01e                	sh	a5,0(s0)
     bfe:	0141                	addi	sp,sp,16
     c00:	e14ff06f          	j	214 <__riscv_restore_0>

00000c04 <atk_ms6050_get_accelerometer>:
     c04:	decff2ef          	jal	t0,1f0 <__riscv_save_0>
     c08:	1141                	addi	sp,sp,-16
     c0a:	892a                	mv	s2,a0
     c0c:	84ae                	mv	s1,a1
     c0e:	8432                	mv	s0,a2
     c10:	0034                	addi	a3,sp,8
     c12:	4619                	li	a2,6
     c14:	03b00593          	li	a1,59
     c18:	06800513          	li	a0,104
     c1c:	3bc5                	jal	a0c <atk_ms6050_read>
     c1e:	e10d                	bnez	a0,c40 <atk_ms6050_get_accelerometer+0x3c>
     c20:	841c                	lbu	a5,8(sp)
     c22:	8498                	lbu	a4,9(sp)
     c24:	07a2                	slli	a5,a5,0x8
     c26:	8fd9                	or	a5,a5,a4
     c28:	00f91023          	sh	a5,0(s2)
     c2c:	851c                	lbu	a5,10(sp)
     c2e:	8598                	lbu	a4,11(sp)
     c30:	07a2                	slli	a5,a5,0x8
     c32:	8fd9                	or	a5,a5,a4
     c34:	a09e                	sh	a5,0(s1)
     c36:	861c                	lbu	a5,12(sp)
     c38:	8698                	lbu	a4,13(sp)
     c3a:	07a2                	slli	a5,a5,0x8
     c3c:	8fd9                	or	a5,a5,a4
     c3e:	a01e                	sh	a5,0(s0)
     c40:	0141                	addi	sp,sp,16
     c42:	dd2ff06f          	j	214 <__riscv_restore_0>

00000c46 <atk_ms6050_init>:
     c46:	daaff2ef          	jal	t0,1f0 <__riscv_save_0>
     c4a:	400217b7          	lui	a5,0x40021
     c4e:	4f98                	lw	a4,24(a5)
     c50:	000306b7          	lui	a3,0x30
     c54:	1141                	addi	sp,sp,-16
     c56:	00876713          	ori	a4,a4,8
     c5a:	cf98                	sw	a4,24(a5)
     c5c:	4f98                	lw	a4,24(a5)
     c5e:	00176713          	ori	a4,a4,1
     c62:	cf98                	sw	a4,24(a5)
     c64:	400117b7          	lui	a5,0x40011
     c68:	8047a703          	lw	a4,-2044(a5) # 40010804 <_eusrstack+0x20008804>
     c6c:	8f55                	or	a4,a4,a3
     c6e:	80e7a223          	sw	a4,-2044(a5)
     c72:	8047a703          	lw	a4,-2044(a5)
     c76:	fff406b7          	lui	a3,0xfff40
     c7a:	16fd                	addi	a3,a3,-1
     c7c:	8f75                	and	a4,a4,a3
     c7e:	80e7a223          	sw	a4,-2044(a5)
     c82:	80c7a703          	lw	a4,-2036(a5)
     c86:	76fd                	lui	a3,0xfffff
     c88:	16fd                	addi	a3,a3,-1
     c8a:	8f75                	and	a4,a4,a3
     c8c:	80e7a623          	sw	a4,-2036(a5)
     c90:	2051                	jal	d14 <Driver_I2C2_Init>
     c92:	3bc5                	jal	a82 <atk_ms6050_sw_reset>
     c94:	450d                	li	a0,3
     c96:	3d19                	jal	aac <atk_ms6050_set_gyro_fsr>
     c98:	4501                	li	a0,0
     c9a:	352d                	jal	ac4 <atk_ms6050_set_accel_fsr>
     c9c:	03200513          	li	a0,50
     ca0:	3db5                	jal	b1c <atk_ms6050_set_rate>
     ca2:	4601                	li	a2,0
     ca4:	03800593          	li	a1,56
     ca8:	06800513          	li	a0,104
     cac:	33a9                	jal	9f6 <atk_ms6050_write_byte>
     cae:	4601                	li	a2,0
     cb0:	06a00593          	li	a1,106
     cb4:	06800513          	li	a0,104
     cb8:	3b3d                	jal	9f6 <atk_ms6050_write_byte>
     cba:	4601                	li	a2,0
     cbc:	02300593          	li	a1,35
     cc0:	06800513          	li	a0,104
     cc4:	3b0d                	jal	9f6 <atk_ms6050_write_byte>
     cc6:	08000613          	li	a2,128
     cca:	03700593          	li	a1,55
     cce:	06800513          	li	a0,104
     cd2:	3315                	jal	9f6 <atk_ms6050_write_byte>
     cd4:	00f10613          	addi	a2,sp,15
     cd8:	07500593          	li	a1,117
     cdc:	06800513          	li	a0,104
     ce0:	3b51                	jal	a74 <atk_ms6050_read_byte>
     ce2:	8798                	lbu	a4,15(sp)
     ce4:	06800793          	li	a5,104
     ce8:	4505                	li	a0,1
     cea:	02f71263          	bne	a4,a5,d0e <atk_ms6050_init+0xc8>
     cee:	4605                	li	a2,1
     cf0:	06b00593          	li	a1,107
     cf4:	06800513          	li	a0,104
     cf8:	39fd                	jal	9f6 <atk_ms6050_write_byte>
     cfa:	4601                	li	a2,0
     cfc:	06c00593          	li	a1,108
     d00:	06800513          	li	a0,104
     d04:	39cd                	jal	9f6 <atk_ms6050_write_byte>
     d06:	03200513          	li	a0,50
     d0a:	3d09                	jal	b1c <atk_ms6050_set_rate>
     d0c:	4501                	li	a0,0
     d0e:	0141                	addi	sp,sp,16
     d10:	d04ff06f          	j	214 <__riscv_restore_0>

00000d14 <Driver_I2C2_Init>:
     d14:	40021737          	lui	a4,0x40021
     d18:	4f1c                	lw	a5,24(a4)
     d1a:	770006b7          	lui	a3,0x77000
     d1e:	0087e793          	ori	a5,a5,8
     d22:	cf1c                	sw	a5,24(a4)
     d24:	400117b7          	lui	a5,0x40011
     d28:	c007a703          	lw	a4,-1024(a5) # 40010c00 <_eusrstack+0x20008c00>
     d2c:	8f55                	or	a4,a4,a3
     d2e:	c0e7a023          	sw	a4,-1024(a5)
     d32:	c007a703          	lw	a4,-1024(a5)
     d36:	780006b7          	lui	a3,0x78000
     d3a:	16fd                	addi	a3,a3,-1
     d3c:	8f75                	and	a4,a4,a3
     d3e:	c0e7a023          	sw	a4,-1024(a5)
     d42:	8082                	ret

00000d44 <Driver_I2C2_Start>:
     d44:	cacff2ef          	jal	t0,1f0 <__riscv_save_0>
     d48:	40011437          	lui	s0,0x40011
     d4c:	c0c42783          	lw	a5,-1012(s0) # 40010c0c <_eusrstack+0x20008c0c>
     d50:	4529                	li	a0,10
     d52:	c0040413          	addi	s0,s0,-1024
     d56:	0807e793          	ori	a5,a5,128
     d5a:	c45c                	sw	a5,12(s0)
     d5c:	445c                	lw	a5,12(s0)
     d5e:	0407e793          	ori	a5,a5,64
     d62:	c45c                	sw	a5,12(s0)
     d64:	2901                	jal	1174 <Delay_Us>
     d66:	445c                	lw	a5,12(s0)
     d68:	4529                	li	a0,10
     d6a:	f7f7f793          	andi	a5,a5,-129
     d6e:	c45c                	sw	a5,12(s0)
     d70:	2111                	jal	1174 <Delay_Us>
     d72:	ca2ff06f          	j	214 <__riscv_restore_0>

00000d76 <Driver_I2C2_Stop>:
     d76:	c7aff2ef          	jal	t0,1f0 <__riscv_save_0>
     d7a:	40011437          	lui	s0,0x40011
     d7e:	c0c42783          	lw	a5,-1012(s0) # 40010c0c <_eusrstack+0x20008c0c>
     d82:	4529                	li	a0,10
     d84:	c0040413          	addi	s0,s0,-1024
     d88:	0407e793          	ori	a5,a5,64
     d8c:	c45c                	sw	a5,12(s0)
     d8e:	445c                	lw	a5,12(s0)
     d90:	f7f7f793          	andi	a5,a5,-129
     d94:	c45c                	sw	a5,12(s0)
     d96:	2ef9                	jal	1174 <Delay_Us>
     d98:	445c                	lw	a5,12(s0)
     d9a:	4529                	li	a0,10
     d9c:	0807e793          	ori	a5,a5,128
     da0:	c45c                	sw	a5,12(s0)
     da2:	2ec9                	jal	1174 <Delay_Us>
     da4:	c70ff06f          	j	214 <__riscv_restore_0>

00000da8 <Driver_I2C2_Ack>:
     da8:	c48ff2ef          	jal	t0,1f0 <__riscv_save_0>
     dac:	40011437          	lui	s0,0x40011
     db0:	c0c42783          	lw	a5,-1012(s0) # 40010c0c <_eusrstack+0x20008c0c>
     db4:	4529                	li	a0,10
     db6:	c0040413          	addi	s0,s0,-1024
     dba:	0807e793          	ori	a5,a5,128
     dbe:	c45c                	sw	a5,12(s0)
     dc0:	445c                	lw	a5,12(s0)
     dc2:	fbf7f793          	andi	a5,a5,-65
     dc6:	c45c                	sw	a5,12(s0)
     dc8:	2675                	jal	1174 <Delay_Us>
     dca:	445c                	lw	a5,12(s0)
     dcc:	4529                	li	a0,10
     dce:	f7f7f793          	andi	a5,a5,-129
     dd2:	c45c                	sw	a5,12(s0)
     dd4:	2645                	jal	1174 <Delay_Us>
     dd6:	445c                	lw	a5,12(s0)
     dd8:	4529                	li	a0,10
     dda:	0407e793          	ori	a5,a5,64
     dde:	c45c                	sw	a5,12(s0)
     de0:	2e51                	jal	1174 <Delay_Us>
     de2:	445c                	lw	a5,12(s0)
     de4:	4529                	li	a0,10
     de6:	fbf7f793          	andi	a5,a5,-65
     dea:	c45c                	sw	a5,12(s0)
     dec:	2661                	jal	1174 <Delay_Us>
     dee:	445c                	lw	a5,12(s0)
     df0:	4529                	li	a0,10
     df2:	0807e793          	ori	a5,a5,128
     df6:	c45c                	sw	a5,12(s0)
     df8:	2eb5                	jal	1174 <Delay_Us>
     dfa:	c1aff06f          	j	214 <__riscv_restore_0>

00000dfe <Driver_I2C2_NAck>:
     dfe:	bf2ff2ef          	jal	t0,1f0 <__riscv_save_0>
     e02:	40011437          	lui	s0,0x40011
     e06:	c0c42783          	lw	a5,-1012(s0) # 40010c0c <_eusrstack+0x20008c0c>
     e0a:	4529                	li	a0,10
     e0c:	c0040413          	addi	s0,s0,-1024
     e10:	0807e793          	ori	a5,a5,128
     e14:	c45c                	sw	a5,12(s0)
     e16:	445c                	lw	a5,12(s0)
     e18:	fbf7f793          	andi	a5,a5,-65
     e1c:	c45c                	sw	a5,12(s0)
     e1e:	2e99                	jal	1174 <Delay_Us>
     e20:	445c                	lw	a5,12(s0)
     e22:	4529                	li	a0,10
     e24:	0407e793          	ori	a5,a5,64
     e28:	c45c                	sw	a5,12(s0)
     e2a:	26a9                	jal	1174 <Delay_Us>
     e2c:	445c                	lw	a5,12(s0)
     e2e:	4529                	li	a0,10
     e30:	fbf7f793          	andi	a5,a5,-65
     e34:	c45c                	sw	a5,12(s0)
     e36:	2e3d                	jal	1174 <Delay_Us>
     e38:	bdcff06f          	j	214 <__riscv_restore_0>

00000e3c <Driver_I2C2_WaitAck>:
     e3c:	bb4ff2ef          	jal	t0,1f0 <__riscv_save_0>
     e40:	40011437          	lui	s0,0x40011
     e44:	c0c42783          	lw	a5,-1012(s0) # 40010c0c <_eusrstack+0x20008c0c>
     e48:	4529                	li	a0,10
     e4a:	c0040413          	addi	s0,s0,-1024
     e4e:	0807e793          	ori	a5,a5,128
     e52:	c45c                	sw	a5,12(s0)
     e54:	445c                	lw	a5,12(s0)
     e56:	fbf7f793          	andi	a5,a5,-65
     e5a:	c45c                	sw	a5,12(s0)
     e5c:	2e21                	jal	1174 <Delay_Us>
     e5e:	445c                	lw	a5,12(s0)
     e60:	4529                	li	a0,10
     e62:	0407e793          	ori	a5,a5,64
     e66:	c45c                	sw	a5,12(s0)
     e68:	2631                	jal	1174 <Delay_Us>
     e6a:	4404                	lw	s1,8(s0)
     e6c:	445c                	lw	a5,12(s0)
     e6e:	4529                	li	a0,10
     e70:	fbf7f793          	andi	a5,a5,-65
     e74:	c45c                	sw	a5,12(s0)
     e76:	2cfd                	jal	1174 <Delay_Us>
     e78:	0074d513          	srli	a0,s1,0x7
     e7c:	8905                	andi	a0,a0,1
     e7e:	b96ff06f          	j	214 <__riscv_restore_0>

00000e82 <Driver_I2C_SendByte>:
     e82:	b54ff2ef          	jal	t0,1d6 <__riscv_save_4>
     e86:	892a                	mv	s2,a0
     e88:	44a1                	li	s1,8
     e8a:	400119b7          	lui	s3,0x40011
     e8e:	c0098413          	addi	s0,s3,-1024 # 40010c00 <_eusrstack+0x20008c00>
     e92:	445c                	lw	a5,12(s0)
     e94:	4529                	li	a0,10
     e96:	f7f7f793          	andi	a5,a5,-129
     e9a:	c45c                	sw	a5,12(s0)
     e9c:	445c                	lw	a5,12(s0)
     e9e:	fbf7f793          	andi	a5,a5,-65
     ea2:	c45c                	sw	a5,12(s0)
     ea4:	2cc1                	jal	1174 <Delay_Us>
     ea6:	01891793          	slli	a5,s2,0x18
     eaa:	87e1                	srai	a5,a5,0x18
     eac:	0407d363          	bgez	a5,ef2 <Driver_I2C_SendByte+0x70>
     eb0:	445c                	lw	a5,12(s0)
     eb2:	0807e793          	ori	a5,a5,128
     eb6:	c45c                	sw	a5,12(s0)
     eb8:	4529                	li	a0,10
     eba:	2c6d                	jal	1174 <Delay_Us>
     ebc:	c0c9a783          	lw	a5,-1012(s3)
     ec0:	4529                	li	a0,10
     ec2:	14fd                	addi	s1,s1,-1
     ec4:	0407e793          	ori	a5,a5,64
     ec8:	c0f9a623          	sw	a5,-1012(s3)
     ecc:	2465                	jal	1174 <Delay_Us>
     ece:	c0c9a783          	lw	a5,-1012(s3)
     ed2:	4529                	li	a0,10
     ed4:	0906                	slli	s2,s2,0x1
     ed6:	fbf7f793          	andi	a5,a5,-65
     eda:	c0f9a623          	sw	a5,-1012(s3)
     ede:	0ff4f493          	andi	s1,s1,255
     ee2:	c0098413          	addi	s0,s3,-1024
     ee6:	2479                	jal	1174 <Delay_Us>
     ee8:	0ff97913          	andi	s2,s2,255
     eec:	f0cd                	bnez	s1,e8e <Driver_I2C_SendByte+0xc>
     eee:	b1cff06f          	j	20a <__riscv_restore_4>
     ef2:	445c                	lw	a5,12(s0)
     ef4:	f7f7f793          	andi	a5,a5,-129
     ef8:	bf7d                	j	eb6 <Driver_I2C_SendByte+0x34>

00000efa <Driver_I2C_ReadByteAck>:
     efa:	adcff2ef          	jal	t0,1d6 <__riscv_save_4>
     efe:	40011437          	lui	s0,0x40011
     f02:	89aa                	mv	s3,a0
     f04:	4921                	li	s2,8
     f06:	4481                	li	s1,0
     f08:	c0040413          	addi	s0,s0,-1024 # 40010c00 <_eusrstack+0x20008c00>
     f0c:	445c                	lw	a5,12(s0)
     f0e:	4529                	li	a0,10
     f10:	0486                	slli	s1,s1,0x1
     f12:	fbf7f793          	andi	a5,a5,-65
     f16:	c45c                	sw	a5,12(s0)
     f18:	2cb1                	jal	1174 <Delay_Us>
     f1a:	445c                	lw	a5,12(s0)
     f1c:	4529                	li	a0,10
     f1e:	0ff4f493          	andi	s1,s1,255
     f22:	0407e793          	ori	a5,a5,64
     f26:	c45c                	sw	a5,12(s0)
     f28:	24b1                	jal	1174 <Delay_Us>
     f2a:	441c                	lw	a5,8(s0)
     f2c:	0807f793          	andi	a5,a5,128
     f30:	c399                	beqz	a5,f36 <Driver_I2C_ReadByteAck+0x3c>
     f32:	0014e493          	ori	s1,s1,1
     f36:	445c                	lw	a5,12(s0)
     f38:	197d                	addi	s2,s2,-1
     f3a:	4529                	li	a0,10
     f3c:	fbf7f793          	andi	a5,a5,-65
     f40:	c45c                	sw	a5,12(s0)
     f42:	0ff97913          	andi	s2,s2,255
     f46:	243d                	jal	1174 <Delay_Us>
     f48:	fc0912e3          	bnez	s2,f0c <Driver_I2C_ReadByteAck+0x12>
     f4c:	00099663          	bnez	s3,f58 <Driver_I2C_ReadByteAck+0x5e>
     f50:	357d                	jal	dfe <Driver_I2C2_NAck>
     f52:	8526                	mv	a0,s1
     f54:	ab6ff06f          	j	20a <__riscv_restore_4>
     f58:	3d81                	jal	da8 <Driver_I2C2_Ack>
     f5a:	bfe5                	j	f52 <Driver_I2C_ReadByteAck+0x58>

00000f5c <EXTI15_10_IRQHandler>:
     f5c:	400107b7          	lui	a5,0x40010
     f60:	4147a703          	lw	a4,1044(a5) # 40010414 <_eusrstack+0x20008414>
     f64:	40076713          	ori	a4,a4,1024
     f68:	40e7aa23          	sw	a4,1044(a5)
     f6c:	400127b7          	lui	a5,0x40012
     f70:	80078793          	addi	a5,a5,-2048 # 40011800 <_eusrstack+0x20009800>
     f74:	479c                	lw	a5,8(a5)
     f76:	4007f793          	andi	a5,a5,1024
     f7a:	c799                	beqz	a5,f88 <EXTI15_10_IRQHandler+0x2c>
     f7c:	a74ff2ef          	jal	t0,1f0 <__riscv_save_0>
     f80:	4505                	li	a0,1
     f82:	2035                	jal	fae <Drviver_LED_Toggle>
     f84:	a90ff06f          	j	214 <__riscv_restore_0>
     f88:	8082                	ret

00000f8a <Drviver_LED_On>:
     f8a:	400117b7          	lui	a5,0x40011
     f8e:	80c7a703          	lw	a4,-2036(a5) # 4001080c <_eusrstack+0x2000880c>
     f92:	fff54513          	not	a0,a0
     f96:	8d79                	and	a0,a0,a4
     f98:	80a7a623          	sw	a0,-2036(a5)
     f9c:	8082                	ret

00000f9e <Drviver_LED_Off>:
     f9e:	400117b7          	lui	a5,0x40011
     fa2:	80c7a703          	lw	a4,-2036(a5) # 4001080c <_eusrstack+0x2000880c>
     fa6:	8d59                	or	a0,a0,a4
     fa8:	80a7a623          	sw	a0,-2036(a5)
     fac:	8082                	ret

00000fae <Drviver_LED_Toggle>:
     fae:	a42ff2ef          	jal	t0,1f0 <__riscv_save_0>
     fb2:	400117b7          	lui	a5,0x40011
     fb6:	80078793          	addi	a5,a5,-2048 # 40010800 <_eusrstack+0x20008800>
     fba:	479c                	lw	a5,8(a5)
     fbc:	8fe9                	and	a5,a5,a0
     fbe:	e781                	bnez	a5,fc6 <Drviver_LED_Toggle+0x18>
     fc0:	3ff9                	jal	f9e <Drviver_LED_Off>
     fc2:	a52ff06f          	j	214 <__riscv_restore_0>
     fc6:	37d1                	jal	f8a <Drviver_LED_On>
     fc8:	bfed                	j	fc2 <Drviver_LED_Toggle+0x14>

00000fca <Driver_TIM1_Stop>:
     fca:	40013737          	lui	a4,0x40013
     fce:	c0075783          	lhu	a5,-1024(a4) # 40012c00 <_eusrstack+0x2000ac00>
     fd2:	07c2                	slli	a5,a5,0x10
     fd4:	83c1                	srli	a5,a5,0x10
     fd6:	9bf9                	andi	a5,a5,-2
     fd8:	07c2                	slli	a5,a5,0x10
     fda:	83c1                	srli	a5,a5,0x10
     fdc:	c0f71023          	sh	a5,-1024(a4)
     fe0:	8082                	ret

00000fe2 <TIM1_UP_IRQHandler>:
     fe2:	a0eff2ef          	jal	t0,1f0 <__riscv_save_0>
     fe6:	40013737          	lui	a4,0x40013
     fea:	c1075783          	lhu	a5,-1008(a4) # 40012c10 <_eusrstack+0x2000ac10>
     fee:	07c2                	slli	a5,a5,0x10
     ff0:	83c1                	srli	a5,a5,0x10
     ff2:	9bf9                	andi	a5,a5,-2
     ff4:	07c2                	slli	a5,a5,0x10
     ff6:	83c1                	srli	a5,a5,0x10
     ff8:	c0f71823          	sh	a5,-1008(a4)
     ffc:	37f9                	jal	fca <Driver_TIM1_Stop>
     ffe:	a16ff06f          	j	214 <__riscv_restore_0>

00001002 <TIM6_IRQHandler>:
    1002:	40001737          	lui	a4,0x40001
    1006:	2b1e                	lhu	a5,16(a4)
    1008:	07c2                	slli	a5,a5,0x10
    100a:	83c1                	srli	a5,a5,0x10
    100c:	9bf9                	andi	a5,a5,-2
    100e:	07c2                	slli	a5,a5,0x10
    1010:	83c1                	srli	a5,a5,0x10
    1012:	ab1e                	sh	a5,16(a4)
    1014:	8082                	ret

00001016 <Driver_USART2_Init>:
    1016:	9daff2ef          	jal	t0,1f0 <__riscv_save_0>
    101a:	400217b7          	lui	a5,0x40021
    101e:	4f98                	lw	a4,24(a5)
    1020:	000206b7          	lui	a3,0x20
    1024:	40004437          	lui	s0,0x40004
    1028:	8f55                	or	a4,a4,a3
    102a:	cf98                	sw	a4,24(a5)
    102c:	4f98                	lw	a4,24(a5)
    102e:	6685                	lui	a3,0x1
    1030:	80068693          	addi	a3,a3,-2048 # 800 <__stack_size>
    1034:	00476713          	ori	a4,a4,4
    1038:	cf98                	sw	a4,24(a5)
    103a:	400117b7          	lui	a5,0x40011
    103e:	8007a703          	lw	a4,-2048(a5) # 40010800 <_eusrstack+0x20008800>
    1042:	40040413          	addi	s0,s0,1024 # 40004400 <_eusrstack+0x1fffc400>
    1046:	1141                	addi	sp,sp,-16
    1048:	8f55                	or	a4,a4,a3
    104a:	80e7a023          	sw	a4,-2048(a5)
    104e:	8007a703          	lw	a4,-2048(a5)
    1052:	76e1                	lui	a3,0xffff8
    1054:	16fd                	addi	a3,a3,-1
    1056:	bff77713          	andi	a4,a4,-1025
    105a:	80e7a023          	sw	a4,-2048(a5)
    105e:	8007a703          	lw	a4,-2048(a5)
    1062:	0028                	addi	a0,sp,8
    1064:	30076713          	ori	a4,a4,768
    1068:	80e7a023          	sw	a4,-2048(a5)
    106c:	8007a703          	lw	a4,-2048(a5)
    1070:	8f75                	and	a4,a4,a3
    1072:	80e7a023          	sw	a4,-2048(a5)
    1076:	8007a703          	lw	a4,-2048(a5)
    107a:	6691                	lui	a3,0x4
    107c:	8f55                	or	a4,a4,a3
    107e:	80e7a023          	sw	a4,-2048(a5)
    1082:	8007a683          	lw	a3,-2048(a5)
    1086:	7775                	lui	a4,0xffffd
    1088:	177d                	addi	a4,a4,-1
    108a:	8ef9                	and	a3,a3,a4
    108c:	80d7a023          	sw	a3,-2048(a5)
    1090:	27100793          	li	a5,625
    1094:	a41e                	sh	a5,8(s0)
    1096:	2456                	lhu	a3,12(s0)
    1098:	77fd                	lui	a5,0xfffff
    109a:	17fd                	addi	a5,a5,-1
    109c:	8ff5                	and	a5,a5,a3
    109e:	a45e                	sh	a5,12(s0)
    10a0:	245e                	lhu	a5,12(s0)
    10a2:	07c2                	slli	a5,a5,0x10
    10a4:	83c1                	srli	a5,a5,0x10
    10a6:	bff7f793          	andi	a5,a5,-1025
    10aa:	07c2                	slli	a5,a5,0x10
    10ac:	83c1                	srli	a5,a5,0x10
    10ae:	a45e                	sh	a5,12(s0)
    10b0:	281e                	lhu	a5,16(s0)
    10b2:	8f7d                	and	a4,a4,a5
    10b4:	a81a                	sh	a4,16(s0)
    10b6:	245e                	lhu	a5,12(s0)
    10b8:	0087e793          	ori	a5,a5,8
    10bc:	a45e                	sh	a5,12(s0)
    10be:	245e                	lhu	a5,12(s0)
    10c0:	0047e793          	ori	a5,a5,4
    10c4:	a45e                	sh	a5,12(s0)
    10c6:	245e                	lhu	a5,12(s0)
    10c8:	0207e793          	ori	a5,a5,32
    10cc:	a45e                	sh	a5,12(s0)
    10ce:	245e                	lhu	a5,12(s0)
    10d0:	0107e793          	ori	a5,a5,16
    10d4:	a45e                	sh	a5,12(s0)
    10d6:	33500793          	li	a5,821
    10da:	847c                	sh	a5,8(sp)
    10dc:	4789                	li	a5,2
    10de:	855c                	sb	a5,10(sp)
    10e0:	4785                	li	a5,1
    10e2:	c63e                	sw	a5,12(sp)
    10e4:	e28ff0ef          	jal	ra,70c <NVIC_Init>
    10e8:	245e                	lhu	a5,12(s0)
    10ea:	6709                	lui	a4,0x2
    10ec:	8fd9                	or	a5,a5,a4
    10ee:	a45e                	sh	a5,12(s0)
    10f0:	0141                	addi	sp,sp,16
    10f2:	922ff06f          	j	214 <__riscv_restore_0>

000010f6 <USART1_IRQHandler>:
    10f6:	400147b7          	lui	a5,0x40014
    10fa:	8007d703          	lhu	a4,-2048(a5) # 40013800 <_eusrstack+0x2000b800>
    10fe:	80078693          	addi	a3,a5,-2048
    1102:	02077713          	andi	a4,a4,32
    1106:	cf01                	beqz	a4,111e <USART1_IRQHandler+0x28>
    1108:	81d18713          	addi	a4,gp,-2019 # 2000009d <len>
    110c:	22d2                	lhu	a2,4(a3)
    110e:	2314                	lbu	a3,0(a4)
    1110:	83018793          	addi	a5,gp,-2000 # 200000b0 <buff>
    1114:	97b6                	add	a5,a5,a3
    1116:	0685                	addi	a3,a3,1
    1118:	a390                	sb	a2,0(a5)
    111a:	a314                	sb	a3,0(a4)
    111c:	8082                	ret
    111e:	8007d703          	lhu	a4,-2048(a5)
    1122:	8b41                	andi	a4,a4,16
    1124:	c719                	beqz	a4,1132 <USART1_IRQHandler+0x3c>
    1126:	8007d783          	lhu	a5,-2048(a5)
    112a:	22de                	lhu	a5,4(a3)
    112c:	4705                	li	a4,1
    112e:	80e18e23          	sb	a4,-2020(gp) # 2000009c <isToSend>
    1132:	8082                	ret

00001134 <SysTick_Handler>:
    1134:	e000f7b7          	lui	a5,0xe000f
    1138:	0007a223          	sw	zero,4(a5) # e000f004 <_eusrstack+0xc0007004>
    113c:	82018793          	addi	a5,gp,-2016 # 200000a0 <g_tickCount>
    1140:	4398                	lw	a4,0(a5)
    1142:	0705                	addi	a4,a4,1
    1144:	c398                	sw	a4,0(a5)
    1146:	30200073          	mret

0000114a <Delay_Init>:
    114a:	200007b7          	lui	a5,0x20000
    114e:	0807a783          	lw	a5,128(a5) # 20000080 <SystemCoreClock>
    1152:	007a1737          	lui	a4,0x7a1
    1156:	20070713          	addi	a4,a4,512 # 7a1200 <_data_lma+0x79e120>
    115a:	02e7d7b3          	divu	a5,a5,a4
    115e:	0ff7f793          	andi	a5,a5,255
    1162:	82f18323          	sb	a5,-2010(gp) # 200000a6 <p_us>
    1166:	3e800713          	li	a4,1000
    116a:	02e787b3          	mul	a5,a5,a4
    116e:	82f19223          	sh	a5,-2012(gp) # 200000a4 <p_ms>
    1172:	8082                	ret

00001174 <Delay_Us>:
    1174:	e000f7b7          	lui	a5,0xe000f
    1178:	43d8                	lw	a4,4(a5)
    117a:	4681                	li	a3,0
    117c:	9b79                	andi	a4,a4,-2
    117e:	c3d8                	sw	a4,4(a5)
    1180:	8261c703          	lbu	a4,-2010(gp) # 200000a6 <p_us>
    1184:	02a70633          	mul	a2,a4,a0
    1188:	cb90                	sw	a2,16(a5)
    118a:	cbd4                	sw	a3,20(a5)
    118c:	4398                	lw	a4,0(a5)
    118e:	01076713          	ori	a4,a4,16
    1192:	c398                	sw	a4,0(a5)
    1194:	4398                	lw	a4,0(a5)
    1196:	02176713          	ori	a4,a4,33
    119a:	c398                	sw	a4,0(a5)
    119c:	43d8                	lw	a4,4(a5)
    119e:	8b05                	andi	a4,a4,1
    11a0:	df75                	beqz	a4,119c <Delay_Us+0x28>
    11a2:	4398                	lw	a4,0(a5)
    11a4:	9b79                	andi	a4,a4,-2
    11a6:	c398                	sw	a4,0(a5)
    11a8:	8082                	ret

000011aa <Delay_Ms>:
    11aa:	e000f7b7          	lui	a5,0xe000f
    11ae:	43d8                	lw	a4,4(a5)
    11b0:	4681                	li	a3,0
    11b2:	9b79                	andi	a4,a4,-2
    11b4:	c3d8                	sw	a4,4(a5)
    11b6:	8241d703          	lhu	a4,-2012(gp) # 200000a4 <p_ms>
    11ba:	02a70633          	mul	a2,a4,a0
    11be:	cb90                	sw	a2,16(a5)
    11c0:	cbd4                	sw	a3,20(a5)
    11c2:	4398                	lw	a4,0(a5)
    11c4:	01076713          	ori	a4,a4,16
    11c8:	c398                	sw	a4,0(a5)
    11ca:	4398                	lw	a4,0(a5)
    11cc:	02176713          	ori	a4,a4,33
    11d0:	c398                	sw	a4,0(a5)
    11d2:	43d8                	lw	a4,4(a5)
    11d4:	8b05                	andi	a4,a4,1
    11d6:	df75                	beqz	a4,11d2 <Delay_Ms+0x28>
    11d8:	4398                	lw	a4,0(a5)
    11da:	9b79                	andi	a4,a4,-2
    11dc:	c398                	sw	a4,0(a5)
    11de:	8082                	ret

000011e0 <USART_Printf_Init>:
    11e0:	810ff2ef          	jal	t0,1f0 <__riscv_save_0>
    11e4:	842a                	mv	s0,a0
    11e6:	6511                	lui	a0,0x4
    11e8:	1101                	addi	sp,sp,-32
    11ea:	4585                	li	a1,1
    11ec:	0511                	addi	a0,a0,4
    11ee:	ee2ff0ef          	jal	ra,8d0 <RCC_APB2PeriphClockCmd>
    11f2:	20000793          	li	a5,512
    11f6:	827c                	sh	a5,4(sp)
    11f8:	40011537          	lui	a0,0x40011
    11fc:	478d                	li	a5,3
    11fe:	c43e                	sw	a5,8(sp)
    1200:	004c                	addi	a1,sp,4
    1202:	47e1                	li	a5,24
    1204:	80050513          	addi	a0,a0,-2048 # 40010800 <_eusrstack+0x20008800>
    1208:	c63e                	sw	a5,12(sp)
    120a:	c3cff0ef          	jal	ra,646 <GPIO_Init>
    120e:	c822                	sw	s0,16(sp)
    1210:	40014437          	lui	s0,0x40014
    1214:	000807b7          	lui	a5,0x80
    1218:	080c                	addi	a1,sp,16
    121a:	80040513          	addi	a0,s0,-2048 # 40013800 <_eusrstack+0x2000b800>
    121e:	cc3e                	sw	a5,24(sp)
    1220:	ca02                	sw	zero,20(sp)
    1222:	00011e23          	sh	zero,28(sp)
    1226:	ec8ff0ef          	jal	ra,8ee <USART_Init>
    122a:	4585                	li	a1,1
    122c:	80040513          	addi	a0,s0,-2048
    1230:	f4aff0ef          	jal	ra,97a <USART_Cmd>
    1234:	6105                	addi	sp,sp,32
    1236:	fdffe06f          	j	214 <__riscv_restore_0>

0000123a <_write>:
    123a:	f9dfe2ef          	jal	t0,1d6 <__riscv_save_4>
    123e:	400144b7          	lui	s1,0x40014
    1242:	89ae                	mv	s3,a1
    1244:	8932                	mv	s2,a2
    1246:	4401                	li	s0,0
    1248:	80048493          	addi	s1,s1,-2048 # 40013800 <_eusrstack+0x2000b800>
    124c:	01244563          	blt	s0,s2,1256 <_write+0x1c>
    1250:	854a                	mv	a0,s2
    1252:	fb9fe06f          	j	20a <__riscv_restore_4>
    1256:	04000593          	li	a1,64
    125a:	8526                	mv	a0,s1
    125c:	f3cff0ef          	jal	ra,998 <USART_GetFlagStatus>
    1260:	d97d                	beqz	a0,1256 <_write+0x1c>
    1262:	008987b3          	add	a5,s3,s0
    1266:	00078583          	lb	a1,0(a5) # 80000 <_data_lma+0x7cf20>
    126a:	8526                	mv	a0,s1
    126c:	0405                	addi	s0,s0,1
    126e:	05c2                	slli	a1,a1,0x10
    1270:	81c1                	srli	a1,a1,0x10
    1272:	f1eff0ef          	jal	ra,990 <USART_SendData>
    1276:	bfd9                	j	124c <_write+0x12>

00001278 <_sbrk>:
    1278:	80818713          	addi	a4,gp,-2040 # 20000088 <curbrk.5288>
    127c:	431c                	lw	a5,0(a4)
    127e:	89818693          	addi	a3,gp,-1896 # 20000118 <_ebss>
    1282:	953e                	add	a0,a0,a5
    1284:	00d56b63          	bltu	a0,a3,129a <_sbrk+0x22>
    1288:	200086b7          	lui	a3,0x20008
    128c:	80068693          	addi	a3,a3,-2048 # 20007800 <_heap_end>
    1290:	00a6e563          	bltu	a3,a0,129a <_sbrk+0x22>
    1294:	c308                	sw	a0,0(a4)
    1296:	853e                	mv	a0,a5
    1298:	8082                	ret
    129a:	57fd                	li	a5,-1
    129c:	bfed                	j	1296 <_sbrk+0x1e>

0000129e <__addsf3>:
    129e:	1141                	addi	sp,sp,-16
    12a0:	00800737          	lui	a4,0x800
    12a4:	177d                	addi	a4,a4,-1
    12a6:	0175d813          	srli	a6,a1,0x17
    12aa:	c226                	sw	s1,4(sp)
    12ac:	01755493          	srli	s1,a0,0x17
    12b0:	00a77333          	and	t1,a4,a0
    12b4:	0ff4f493          	andi	s1,s1,255
    12b8:	00b776b3          	and	a3,a4,a1
    12bc:	c04a                	sw	s2,0(sp)
    12be:	0ff87813          	andi	a6,a6,255
    12c2:	01f55913          	srli	s2,a0,0x1f
    12c6:	c606                	sw	ra,12(sp)
    12c8:	c422                	sw	s0,8(sp)
    12ca:	81fd                	srli	a1,a1,0x1f
    12cc:	879a                	mv	a5,t1
    12ce:	8526                	mv	a0,s1
    12d0:	864a                	mv	a2,s2
    12d2:	00331e13          	slli	t3,t1,0x3
    12d6:	00369e93          	slli	t4,a3,0x3
    12da:	410488b3          	sub	a7,s1,a6
    12de:	0eb90a63          	beq	s2,a1,13d2 <__addsf3+0x134>
    12e2:	0d105063          	blez	a7,13a2 <__addsf3+0x104>
    12e6:	14080463          	beqz	a6,142e <__addsf3+0x190>
    12ea:	0ff00793          	li	a5,255
    12ee:	14f48b63          	beq	s1,a5,1444 <__addsf3+0x1a6>
    12f2:	040007b7          	lui	a5,0x4000
    12f6:	00feeeb3          	or	t4,t4,a5
    12fa:	47ed                	li	a5,27
    12fc:	2917c163          	blt	a5,a7,157e <__addsf3+0x2e0>
    1300:	02000793          	li	a5,32
    1304:	411787b3          	sub	a5,a5,a7
    1308:	00fe97b3          	sll	a5,t4,a5
    130c:	011ed8b3          	srl	a7,t4,a7
    1310:	00f037b3          	snez	a5,a5
    1314:	00f8e7b3          	or	a5,a7,a5
    1318:	40fe07b3          	sub	a5,t3,a5
    131c:	00579713          	slli	a4,a5,0x5
    1320:	18075e63          	bgez	a4,14bc <__addsf3+0x21e>
    1324:	04000437          	lui	s0,0x4000
    1328:	147d                	addi	s0,s0,-1
    132a:	8c7d                	and	s0,s0,a5
    132c:	8522                	mv	a0,s0
    132e:	141000ef          	jal	ra,1c6e <__clzsi2>
    1332:	156d                	addi	a0,a0,-5
    1334:	00a417b3          	sll	a5,s0,a0
    1338:	1a954863          	blt	a0,s1,14e8 <__addsf3+0x24a>
    133c:	8d05                	sub	a0,a0,s1
    133e:	00150413          	addi	s0,a0,1
    1342:	02000713          	li	a4,32
    1346:	8f01                	sub	a4,a4,s0
    1348:	00e79733          	sll	a4,a5,a4
    134c:	00e03733          	snez	a4,a4
    1350:	0087d7b3          	srl	a5,a5,s0
    1354:	8fd9                	or	a5,a5,a4
    1356:	4481                	li	s1,0
    1358:	0077f713          	andi	a4,a5,7
    135c:	c719                	beqz	a4,136a <__addsf3+0xcc>
    135e:	00f7f713          	andi	a4,a5,15
    1362:	4691                	li	a3,4
    1364:	00d70363          	beq	a4,a3,136a <__addsf3+0xcc>
    1368:	0791                	addi	a5,a5,4
    136a:	00579713          	slli	a4,a5,0x5
    136e:	14075b63          	bgez	a4,14c4 <__addsf3+0x226>
    1372:	0485                	addi	s1,s1,1
    1374:	0ff00713          	li	a4,255
    1378:	864a                	mv	a2,s2
    137a:	16e48363          	beq	s1,a4,14e0 <__addsf3+0x242>
    137e:	079a                	slli	a5,a5,0x6
    1380:	83a5                	srli	a5,a5,0x9
    1382:	0ff4f513          	andi	a0,s1,255
    1386:	40b2                	lw	ra,12(sp)
    1388:	4422                	lw	s0,8(sp)
    138a:	07a6                	slli	a5,a5,0x9
    138c:	01751493          	slli	s1,a0,0x17
    1390:	0097d513          	srli	a0,a5,0x9
    1394:	8d45                	or	a0,a0,s1
    1396:	067e                	slli	a2,a2,0x1f
    1398:	4492                	lw	s1,4(sp)
    139a:	4902                	lw	s2,0(sp)
    139c:	8d51                	or	a0,a0,a2
    139e:	0141                	addi	sp,sp,16
    13a0:	8082                	ret
    13a2:	0a089963          	bnez	a7,1454 <__addsf3+0x1b6>
    13a6:	00148713          	addi	a4,s1,1
    13aa:	0fe77713          	andi	a4,a4,254
    13ae:	14071763          	bnez	a4,14fc <__addsf3+0x25e>
    13b2:	22049063          	bnez	s1,15d2 <__addsf3+0x334>
    13b6:	1e0e0d63          	beqz	t3,15b0 <__addsf3+0x312>
    13ba:	fc0e86e3          	beqz	t4,1386 <__addsf3+0xe8>
    13be:	41de07b3          	sub	a5,t3,t4
    13c2:	00579713          	slli	a4,a5,0x5
    13c6:	22075063          	bgez	a4,15e6 <__addsf3+0x348>
    13ca:	41ce87b3          	sub	a5,t4,t3
    13ce:	892e                	mv	s2,a1
    13d0:	b761                	j	1358 <__addsf3+0xba>
    13d2:	0b105c63          	blez	a7,148a <__addsf3+0x1ec>
    13d6:	08080e63          	beqz	a6,1472 <__addsf3+0x1d4>
    13da:	0ff00793          	li	a5,255
    13de:	06f48363          	beq	s1,a5,1444 <__addsf3+0x1a6>
    13e2:	040007b7          	lui	a5,0x4000
    13e6:	00feeeb3          	or	t4,t4,a5
    13ea:	47ed                	li	a5,27
    13ec:	1f17c963          	blt	a5,a7,15de <__addsf3+0x340>
    13f0:	02000793          	li	a5,32
    13f4:	411787b3          	sub	a5,a5,a7
    13f8:	00fe97b3          	sll	a5,t4,a5
    13fc:	011ed8b3          	srl	a7,t4,a7
    1400:	00f037b3          	snez	a5,a5
    1404:	00f8e7b3          	or	a5,a7,a5
    1408:	97f2                	add	a5,a5,t3
    140a:	00579713          	slli	a4,a5,0x5
    140e:	0a075763          	bgez	a4,14bc <__addsf3+0x21e>
    1412:	0485                	addi	s1,s1,1
    1414:	0ff00713          	li	a4,255
    1418:	0ce48463          	beq	s1,a4,14e0 <__addsf3+0x242>
    141c:	7e0006b7          	lui	a3,0x7e000
    1420:	0017d713          	srli	a4,a5,0x1
    1424:	16fd                	addi	a3,a3,-1
    1426:	8b85                	andi	a5,a5,1
    1428:	8f75                	and	a4,a4,a3
    142a:	8fd9                	or	a5,a5,a4
    142c:	b735                	j	1358 <__addsf3+0xba>
    142e:	080e8d63          	beqz	t4,14c8 <__addsf3+0x22a>
    1432:	18fd                	addi	a7,a7,-1
    1434:	41de07b3          	sub	a5,t3,t4
    1438:	ee0882e3          	beqz	a7,131c <__addsf3+0x7e>
    143c:	0ff00793          	li	a5,255
    1440:	eaf49de3          	bne	s1,a5,12fa <__addsf3+0x5c>
    1444:	08030d63          	beqz	t1,14de <__addsf3+0x240>
    1448:	4601                	li	a2,0
    144a:	0ff00513          	li	a0,255
    144e:	004007b7          	lui	a5,0x400
    1452:	bf15                	j	1386 <__addsf3+0xe8>
    1454:	40980733          	sub	a4,a6,s1
    1458:	e8ed                	bnez	s1,154a <__addsf3+0x2ac>
    145a:	140e0263          	beqz	t3,159e <__addsf3+0x300>
    145e:	177d                	addi	a4,a4,-1
    1460:	18070863          	beqz	a4,15f0 <__addsf3+0x352>
    1464:	0ff00793          	li	a5,255
    1468:	0ef81963          	bne	a6,a5,155a <__addsf3+0x2bc>
    146c:	892e                	mv	s2,a1
    146e:	8336                	mv	t1,a3
    1470:	bfd1                	j	1444 <__addsf3+0x1a6>
    1472:	040e8b63          	beqz	t4,14c8 <__addsf3+0x22a>
    1476:	18fd                	addi	a7,a7,-1
    1478:	01de07b3          	add	a5,t3,t4
    147c:	f80887e3          	beqz	a7,140a <__addsf3+0x16c>
    1480:	0ff00793          	li	a5,255
    1484:	f6f493e3          	bne	s1,a5,13ea <__addsf3+0x14c>
    1488:	bf75                	j	1444 <__addsf3+0x1a6>
    148a:	08089563          	bnez	a7,1514 <__addsf3+0x276>
    148e:	0485                	addi	s1,s1,1
    1490:	0fe4f713          	andi	a4,s1,254
    1494:	12071363          	bnez	a4,15ba <__addsf3+0x31c>
    1498:	10051763          	bnez	a0,15a6 <__addsf3+0x308>
    149c:	140e0f63          	beqz	t3,15fa <__addsf3+0x35c>
    14a0:	ee0e83e3          	beqz	t4,1386 <__addsf3+0xe8>
    14a4:	01de07b3          	add	a5,t3,t4
    14a8:	00579713          	slli	a4,a5,0x5
    14ac:	4481                	li	s1,0
    14ae:	00075763          	bgez	a4,14bc <__addsf3+0x21e>
    14b2:	fc000737          	lui	a4,0xfc000
    14b6:	177d                	addi	a4,a4,-1
    14b8:	8ff9                	and	a5,a5,a4
    14ba:	4485                	li	s1,1
    14bc:	0077f713          	andi	a4,a5,7
    14c0:	e8071fe3          	bnez	a4,135e <__addsf3+0xc0>
    14c4:	0037d313          	srli	t1,a5,0x3
    14c8:	0ff00793          	li	a5,255
    14cc:	f6f48ce3          	beq	s1,a5,1444 <__addsf3+0x1a6>
    14d0:	00931793          	slli	a5,t1,0x9
    14d4:	83a5                	srli	a5,a5,0x9
    14d6:	0ff4f513          	andi	a0,s1,255
    14da:	864a                	mv	a2,s2
    14dc:	b56d                	j	1386 <__addsf3+0xe8>
    14de:	864a                	mv	a2,s2
    14e0:	0ff00513          	li	a0,255
    14e4:	4781                	li	a5,0
    14e6:	b545                	j	1386 <__addsf3+0xe8>
    14e8:	fc000737          	lui	a4,0xfc000
    14ec:	177d                	addi	a4,a4,-1
    14ee:	8ff9                	and	a5,a5,a4
    14f0:	0077f713          	andi	a4,a5,7
    14f4:	8c89                	sub	s1,s1,a0
    14f6:	e60714e3          	bnez	a4,135e <__addsf3+0xc0>
    14fa:	b7e9                	j	14c4 <__addsf3+0x226>
    14fc:	41de0433          	sub	s0,t3,t4
    1500:	00541793          	slli	a5,s0,0x5
    1504:	0c07c363          	bltz	a5,15ca <__addsf3+0x32c>
    1508:	e20412e3          	bnez	s0,132c <__addsf3+0x8e>
    150c:	4601                	li	a2,0
    150e:	4501                	li	a0,0
    1510:	4781                	li	a5,0
    1512:	bd95                	j	1386 <__addsf3+0xe8>
    1514:	40980733          	sub	a4,a6,s1
    1518:	c4ad                	beqz	s1,1582 <__addsf3+0x2e4>
    151a:	0ff00793          	li	a5,255
    151e:	f4f808e3          	beq	a6,a5,146e <__addsf3+0x1d0>
    1522:	040007b7          	lui	a5,0x4000
    1526:	00fe6e33          	or	t3,t3,a5
    152a:	47ed                	li	a5,27
    152c:	0ce7cc63          	blt	a5,a4,1604 <__addsf3+0x366>
    1530:	02000793          	li	a5,32
    1534:	8f99                	sub	a5,a5,a4
    1536:	00fe17b3          	sll	a5,t3,a5
    153a:	00ee5733          	srl	a4,t3,a4
    153e:	00f037b3          	snez	a5,a5
    1542:	8fd9                	or	a5,a5,a4
    1544:	97f6                	add	a5,a5,t4
    1546:	84c2                	mv	s1,a6
    1548:	b5c9                	j	140a <__addsf3+0x16c>
    154a:	0ff00793          	li	a5,255
    154e:	f0f80fe3          	beq	a6,a5,146c <__addsf3+0x1ce>
    1552:	040007b7          	lui	a5,0x4000
    1556:	00fe6e33          	or	t3,t3,a5
    155a:	47ed                	li	a5,27
    155c:	08e7c363          	blt	a5,a4,15e2 <__addsf3+0x344>
    1560:	02000693          	li	a3,32
    1564:	8e99                	sub	a3,a3,a4
    1566:	00de16b3          	sll	a3,t3,a3
    156a:	00ee57b3          	srl	a5,t3,a4
    156e:	00d03733          	snez	a4,a3
    1572:	8fd9                	or	a5,a5,a4
    1574:	40fe87b3          	sub	a5,t4,a5
    1578:	84c2                	mv	s1,a6
    157a:	892e                	mv	s2,a1
    157c:	b345                	j	131c <__addsf3+0x7e>
    157e:	4785                	li	a5,1
    1580:	bb61                	j	1318 <__addsf3+0x7a>
    1582:	060e0e63          	beqz	t3,15fe <__addsf3+0x360>
    1586:	177d                	addi	a4,a4,-1
    1588:	01de07b3          	add	a5,t3,t4
    158c:	84c2                	mv	s1,a6
    158e:	e6070ee3          	beqz	a4,140a <__addsf3+0x16c>
    1592:	0ff00793          	li	a5,255
    1596:	f8f81ae3          	bne	a6,a5,152a <__addsf3+0x28c>
    159a:	8336                	mv	t1,a3
    159c:	b565                	j	1444 <__addsf3+0x1a6>
    159e:	8336                	mv	t1,a3
    15a0:	84c2                	mv	s1,a6
    15a2:	892e                	mv	s2,a1
    15a4:	b715                	j	14c8 <__addsf3+0x22a>
    15a6:	ec0e04e3          	beqz	t3,146e <__addsf3+0x1d0>
    15aa:	e80e8de3          	beqz	t4,1444 <__addsf3+0x1a6>
    15ae:	bd69                	j	1448 <__addsf3+0x1aa>
    15b0:	020e8d63          	beqz	t4,15ea <__addsf3+0x34c>
    15b4:	862e                	mv	a2,a1
    15b6:	87b6                	mv	a5,a3
    15b8:	b3f9                	j	1386 <__addsf3+0xe8>
    15ba:	0ff00793          	li	a5,255
    15be:	f2f481e3          	beq	s1,a5,14e0 <__addsf3+0x242>
    15c2:	01de07b3          	add	a5,t3,t4
    15c6:	8385                	srli	a5,a5,0x1
    15c8:	bdd5                	j	14bc <__addsf3+0x21e>
    15ca:	41ce8433          	sub	s0,t4,t3
    15ce:	892e                	mv	s2,a1
    15d0:	bbb1                	j	132c <__addsf3+0x8e>
    15d2:	fc0e1ce3          	bnez	t3,15aa <__addsf3+0x30c>
    15d6:	e60e89e3          	beqz	t4,1448 <__addsf3+0x1aa>
    15da:	892e                	mv	s2,a1
    15dc:	bd49                	j	146e <__addsf3+0x1d0>
    15de:	4785                	li	a5,1
    15e0:	b525                	j	1408 <__addsf3+0x16a>
    15e2:	4785                	li	a5,1
    15e4:	bf41                	j	1574 <__addsf3+0x2d6>
    15e6:	ec079be3          	bnez	a5,14bc <__addsf3+0x21e>
    15ea:	4601                	li	a2,0
    15ec:	4781                	li	a5,0
    15ee:	bb61                	j	1386 <__addsf3+0xe8>
    15f0:	41ce87b3          	sub	a5,t4,t3
    15f4:	84c2                	mv	s1,a6
    15f6:	892e                	mv	s2,a1
    15f8:	b315                	j	131c <__addsf3+0x7e>
    15fa:	87b6                	mv	a5,a3
    15fc:	b369                	j	1386 <__addsf3+0xe8>
    15fe:	8336                	mv	t1,a3
    1600:	84c2                	mv	s1,a6
    1602:	b5d9                	j	14c8 <__addsf3+0x22a>
    1604:	4785                	li	a5,1
    1606:	bf3d                	j	1544 <__addsf3+0x2a6>

00001608 <__divsf3>:
    1608:	7139                	addi	sp,sp,-64
    160a:	01755793          	srli	a5,a0,0x17
    160e:	d84a                	sw	s2,48(sp)
    1610:	d256                	sw	s5,36(sp)
    1612:	ce5e                	sw	s7,28(sp)
    1614:	00951a93          	slli	s5,a0,0x9
    1618:	01f55913          	srli	s2,a0,0x1f
    161c:	de06                	sw	ra,60(sp)
    161e:	dc22                	sw	s0,56(sp)
    1620:	da26                	sw	s1,52(sp)
    1622:	d64e                	sw	s3,44(sp)
    1624:	d452                	sw	s4,40(sp)
    1626:	d05a                	sw	s6,32(sp)
    1628:	0ff7f793          	andi	a5,a5,255
    162c:	009ada93          	srli	s5,s5,0x9
    1630:	8bca                	mv	s7,s2
    1632:	12078263          	beqz	a5,1756 <__divsf3+0x14e>
    1636:	0ff00713          	li	a4,255
    163a:	12e78463          	beq	a5,a4,1762 <__divsf3+0x15a>
    163e:	0a8e                	slli	s5,s5,0x3
    1640:	04000737          	lui	a4,0x4000
    1644:	00eaeab3          	or	s5,s5,a4
    1648:	f8178a13          	addi	s4,a5,-127 # 3ffff81 <_data_lma+0x3ffcea1>
    164c:	4401                	li	s0,0
    164e:	4b01                	li	s6,0
    1650:	0175d793          	srli	a5,a1,0x17
    1654:	00959493          	slli	s1,a1,0x9
    1658:	0ff7f793          	andi	a5,a5,255
    165c:	80a5                	srli	s1,s1,0x9
    165e:	01f5d993          	srli	s3,a1,0x1f
    1662:	c7fd                	beqz	a5,1750 <__divsf3+0x148>
    1664:	0ff00713          	li	a4,255
    1668:	02e78763          	beq	a5,a4,1696 <__divsf3+0x8e>
    166c:	048e                	slli	s1,s1,0x3
    166e:	f8178793          	addi	a5,a5,-127
    1672:	04000737          	lui	a4,0x4000
    1676:	8cd9                	or	s1,s1,a4
    1678:	40fa0a33          	sub	s4,s4,a5
    167c:	4681                	li	a3,0
    167e:	8c55                	or	s0,s0,a3
    1680:	00002717          	auipc	a4,0x2
    1684:	80470713          	addi	a4,a4,-2044 # 2e84 <_read+0xdc>
    1688:	040a                	slli	s0,s0,0x2
    168a:	943a                	add	s0,s0,a4
    168c:	401c                	lw	a5,0(s0)
    168e:	01394933          	xor	s2,s2,s3
    1692:	97ba                	add	a5,a5,a4
    1694:	8782                	jr	a5
    1696:	f01a0a13          	addi	s4,s4,-255
    169a:	e8f9                	bnez	s1,1770 <__divsf3+0x168>
    169c:	4689                	li	a3,2
    169e:	8c55                	or	s0,s0,a3
    16a0:	00002717          	auipc	a4,0x2
    16a4:	82470713          	addi	a4,a4,-2012 # 2ec4 <_read+0x11c>
    16a8:	040a                	slli	s0,s0,0x2
    16aa:	943a                	add	s0,s0,a4
    16ac:	401c                	lw	a5,0(s0)
    16ae:	01394933          	xor	s2,s2,s3
    16b2:	97ba                	add	a5,a5,a4
    16b4:	8782                	jr	a5
    16b6:	4901                	li	s2,0
    16b8:	0ff00713          	li	a4,255
    16bc:	004007b7          	lui	a5,0x400
    16c0:	00979513          	slli	a0,a5,0x9
    16c4:	50f2                	lw	ra,60(sp)
    16c6:	5462                	lw	s0,56(sp)
    16c8:	01771793          	slli	a5,a4,0x17
    16cc:	8125                	srli	a0,a0,0x9
    16ce:	097e                	slli	s2,s2,0x1f
    16d0:	8d5d                	or	a0,a0,a5
    16d2:	01256533          	or	a0,a0,s2
    16d6:	54d2                	lw	s1,52(sp)
    16d8:	5942                	lw	s2,48(sp)
    16da:	59b2                	lw	s3,44(sp)
    16dc:	5a22                	lw	s4,40(sp)
    16de:	5a92                	lw	s5,36(sp)
    16e0:	5b02                	lw	s6,32(sp)
    16e2:	4bf2                	lw	s7,28(sp)
    16e4:	6121                	addi	sp,sp,64
    16e6:	8082                	ret
    16e8:	0ff00713          	li	a4,255
    16ec:	4781                	li	a5,0
    16ee:	bfc9                	j	16c0 <__divsf3+0xb8>
    16f0:	8aa6                	mv	s5,s1
    16f2:	8bce                	mv	s7,s3
    16f4:	8b36                	mv	s6,a3
    16f6:	4789                	li	a5,2
    16f8:	1afb0963          	beq	s6,a5,18aa <__divsf3+0x2a2>
    16fc:	478d                	li	a5,3
    16fe:	fafb0ce3          	beq	s6,a5,16b6 <__divsf3+0xae>
    1702:	4785                	li	a5,1
    1704:	0afb0863          	beq	s6,a5,17b4 <__divsf3+0x1ac>
    1708:	07fa0713          	addi	a4,s4,127
    170c:	001bf913          	andi	s2,s7,1
    1710:	12e05563          	blez	a4,183a <__divsf3+0x232>
    1714:	007af793          	andi	a5,s5,7
    1718:	c799                	beqz	a5,1726 <__divsf3+0x11e>
    171a:	00faf793          	andi	a5,s5,15
    171e:	4691                	li	a3,4
    1720:	00d78363          	beq	a5,a3,1726 <__divsf3+0x11e>
    1724:	0a91                	addi	s5,s5,4
    1726:	004a9793          	slli	a5,s5,0x4
    172a:	0007d963          	bgez	a5,173c <__divsf3+0x134>
    172e:	f80007b7          	lui	a5,0xf8000
    1732:	17fd                	addi	a5,a5,-1
    1734:	00fafab3          	and	s5,s5,a5
    1738:	080a0713          	addi	a4,s4,128
    173c:	0fe00793          	li	a5,254
    1740:	fae7c4e3          	blt	a5,a4,16e8 <__divsf3+0xe0>
    1744:	006a9793          	slli	a5,s5,0x6
    1748:	83a5                	srli	a5,a5,0x9
    174a:	0ff77713          	andi	a4,a4,255
    174e:	bf8d                	j	16c0 <__divsf3+0xb8>
    1750:	e4b1                	bnez	s1,179c <__divsf3+0x194>
    1752:	4685                	li	a3,1
    1754:	b7a9                	j	169e <__divsf3+0x96>
    1756:	020a9463          	bnez	s5,177e <__divsf3+0x176>
    175a:	4411                	li	s0,4
    175c:	4a01                	li	s4,0
    175e:	4b05                	li	s6,1
    1760:	bdc5                	j	1650 <__divsf3+0x48>
    1762:	000a9963          	bnez	s5,1774 <__divsf3+0x16c>
    1766:	4421                	li	s0,8
    1768:	0ff00a13          	li	s4,255
    176c:	4b09                	li	s6,2
    176e:	b5cd                	j	1650 <__divsf3+0x48>
    1770:	468d                	li	a3,3
    1772:	b731                	j	167e <__divsf3+0x76>
    1774:	4431                	li	s0,12
    1776:	0ff00a13          	li	s4,255
    177a:	4b0d                	li	s6,3
    177c:	bdd1                	j	1650 <__divsf3+0x48>
    177e:	8556                	mv	a0,s5
    1780:	c62e                	sw	a1,12(sp)
    1782:	21f5                	jal	1c6e <__clzsi2>
    1784:	ffb50793          	addi	a5,a0,-5
    1788:	00fa9ab3          	sll	s5,s5,a5
    178c:	f8a00793          	li	a5,-118
    1790:	40a78a33          	sub	s4,a5,a0
    1794:	4401                	li	s0,0
    1796:	4b01                	li	s6,0
    1798:	45b2                	lw	a1,12(sp)
    179a:	bd5d                	j	1650 <__divsf3+0x48>
    179c:	8526                	mv	a0,s1
    179e:	29c1                	jal	1c6e <__clzsi2>
    17a0:	ffb50713          	addi	a4,a0,-5
    17a4:	00aa07b3          	add	a5,s4,a0
    17a8:	00e494b3          	sll	s1,s1,a4
    17ac:	07678a13          	addi	s4,a5,118 # f8000076 <_eusrstack+0xd7ff8076>
    17b0:	4681                	li	a3,0
    17b2:	b5f1                	j	167e <__divsf3+0x76>
    17b4:	001bf913          	andi	s2,s7,1
    17b8:	4701                	li	a4,0
    17ba:	4781                	li	a5,0
    17bc:	b711                	j	16c0 <__divsf3+0xb8>
    17be:	6641                	lui	a2,0x10
    17c0:	00549513          	slli	a0,s1,0x5
    17c4:	167d                	addi	a2,a2,-1
    17c6:	01055793          	srli	a5,a0,0x10
    17ca:	8e69                	and	a2,a2,a0
    17cc:	0a9afa63          	bgeu	s5,s1,1880 <__divsf3+0x278>
    17d0:	02fad5b3          	divu	a1,s5,a5
    17d4:	1a7d                	addi	s4,s4,-1
    17d6:	86d6                	mv	a3,s5
    17d8:	4701                	li	a4,0
    17da:	02c58833          	mul	a6,a1,a2
    17de:	02f6f6b3          	remu	a3,a3,a5
    17e2:	06c2                	slli	a3,a3,0x10
    17e4:	8f55                	or	a4,a4,a3
    17e6:	01077b63          	bgeu	a4,a6,17fc <__divsf3+0x1f4>
    17ea:	972a                	add	a4,a4,a0
    17ec:	fff58693          	addi	a3,a1,-1 # 40020fff <_eusrstack+0x20018fff>
    17f0:	0aa76863          	bltu	a4,a0,18a0 <__divsf3+0x298>
    17f4:	0b077663          	bgeu	a4,a6,18a0 <__divsf3+0x298>
    17f8:	15f9                	addi	a1,a1,-2
    17fa:	972a                	add	a4,a4,a0
    17fc:	41070733          	sub	a4,a4,a6
    1800:	02f756b3          	divu	a3,a4,a5
    1804:	02f77733          	remu	a4,a4,a5
    1808:	02c68ab3          	mul	s5,a3,a2
    180c:	01071793          	slli	a5,a4,0x10
    1810:	0157fb63          	bgeu	a5,s5,1826 <__divsf3+0x21e>
    1814:	97aa                	add	a5,a5,a0
    1816:	fff68713          	addi	a4,a3,-1 # 7dffffff <_eusrstack+0x5dff7fff>
    181a:	08a7e163          	bltu	a5,a0,189c <__divsf3+0x294>
    181e:	0757ff63          	bgeu	a5,s5,189c <__divsf3+0x294>
    1822:	16f9                	addi	a3,a3,-2
    1824:	97aa                	add	a5,a5,a0
    1826:	05c2                	slli	a1,a1,0x10
    1828:	41578ab3          	sub	s5,a5,s5
    182c:	8dd5                	or	a1,a1,a3
    182e:	01503ab3          	snez	s5,s5
    1832:	0155eab3          	or	s5,a1,s5
    1836:	8bca                	mv	s7,s2
    1838:	bdc1                	j	1708 <__divsf3+0x100>
    183a:	4685                	li	a3,1
    183c:	8e99                	sub	a3,a3,a4
    183e:	c711                	beqz	a4,184a <__divsf3+0x242>
    1840:	466d                	li	a2,27
    1842:	4701                	li	a4,0
    1844:	4781                	li	a5,0
    1846:	e6d64de3          	blt	a2,a3,16c0 <__divsf3+0xb8>
    184a:	09ea0a13          	addi	s4,s4,158
    184e:	014a9a33          	sll	s4,s5,s4
    1852:	00dad7b3          	srl	a5,s5,a3
    1856:	01403ab3          	snez	s5,s4
    185a:	0157e7b3          	or	a5,a5,s5
    185e:	0077f713          	andi	a4,a5,7
    1862:	c719                	beqz	a4,1870 <__divsf3+0x268>
    1864:	00f7f713          	andi	a4,a5,15
    1868:	4691                	li	a3,4
    186a:	00d70363          	beq	a4,a3,1870 <__divsf3+0x268>
    186e:	0791                	addi	a5,a5,4
    1870:	00579713          	slli	a4,a5,0x5
    1874:	02074863          	bltz	a4,18a4 <__divsf3+0x29c>
    1878:	079a                	slli	a5,a5,0x6
    187a:	83a5                	srli	a5,a5,0x9
    187c:	4701                	li	a4,0
    187e:	b589                	j	16c0 <__divsf3+0xb8>
    1880:	001ad693          	srli	a3,s5,0x1
    1884:	02f6d5b3          	divu	a1,a3,a5
    1888:	01fa9713          	slli	a4,s5,0x1f
    188c:	8341                	srli	a4,a4,0x10
    188e:	02c58833          	mul	a6,a1,a2
    1892:	b7b1                	j	17de <__divsf3+0x1d6>
    1894:	8bce                	mv	s7,s3
    1896:	8b36                	mv	s6,a3
    1898:	4a81                	li	s5,0
    189a:	bdb1                	j	16f6 <__divsf3+0xee>
    189c:	86ba                	mv	a3,a4
    189e:	b761                	j	1826 <__divsf3+0x21e>
    18a0:	85b6                	mv	a1,a3
    18a2:	bfa9                	j	17fc <__divsf3+0x1f4>
    18a4:	4705                	li	a4,1
    18a6:	4781                	li	a5,0
    18a8:	bd21                	j	16c0 <__divsf3+0xb8>
    18aa:	001bf913          	andi	s2,s7,1
    18ae:	0ff00713          	li	a4,255
    18b2:	4781                	li	a5,0
    18b4:	b531                	j	16c0 <__divsf3+0xb8>

000018b6 <__mulsf3>:
    18b6:	7179                	addi	sp,sp,-48
    18b8:	d422                	sw	s0,40(sp)
    18ba:	01755413          	srli	s0,a0,0x17
    18be:	ce4e                	sw	s3,28(sp)
    18c0:	cc52                	sw	s4,24(sp)
    18c2:	00951993          	slli	s3,a0,0x9
    18c6:	d606                	sw	ra,44(sp)
    18c8:	d226                	sw	s1,36(sp)
    18ca:	d04a                	sw	s2,32(sp)
    18cc:	ca56                	sw	s5,20(sp)
    18ce:	c85a                	sw	s6,16(sp)
    18d0:	0ff47413          	andi	s0,s0,255
    18d4:	0099d993          	srli	s3,s3,0x9
    18d8:	01f55a13          	srli	s4,a0,0x1f
    18dc:	c469                	beqz	s0,19a6 <__mulsf3+0xf0>
    18de:	0ff00793          	li	a5,255
    18e2:	0ef40863          	beq	s0,a5,19d2 <__mulsf3+0x11c>
    18e6:	00399793          	slli	a5,s3,0x3
    18ea:	04000737          	lui	a4,0x4000
    18ee:	00e7e9b3          	or	s3,a5,a4
    18f2:	f8140413          	addi	s0,s0,-127 # 3ffff81 <_data_lma+0x3ffcea1>
    18f6:	4481                	li	s1,0
    18f8:	4b01                	li	s6,0
    18fa:	0175d713          	srli	a4,a1,0x17
    18fe:	00959a93          	slli	s5,a1,0x9
    1902:	0ff77713          	andi	a4,a4,255
    1906:	009ada93          	srli	s5,s5,0x9
    190a:	01f5d913          	srli	s2,a1,0x1f
    190e:	cf45                	beqz	a4,19c6 <__mulsf3+0x110>
    1910:	0ff00793          	li	a5,255
    1914:	02f70c63          	beq	a4,a5,194c <__mulsf3+0x96>
    1918:	0a8e                	slli	s5,s5,0x3
    191a:	f8170713          	addi	a4,a4,-127 # 3ffff81 <_data_lma+0x3ffcea1>
    191e:	040007b7          	lui	a5,0x4000
    1922:	00faeab3          	or	s5,s5,a5
    1926:	943a                	add	s0,s0,a4
    1928:	4601                	li	a2,0
    192a:	012a4533          	xor	a0,s4,s2
    192e:	47bd                	li	a5,15
    1930:	86aa                	mv	a3,a0
    1932:	00140593          	addi	a1,s0,1
    1936:	1097e063          	bltu	a5,s1,1a36 <__mulsf3+0x180>
    193a:	00001717          	auipc	a4,0x1
    193e:	5ca70713          	addi	a4,a4,1482 # 2f04 <_read+0x15c>
    1942:	048a                	slli	s1,s1,0x2
    1944:	94ba                	add	s1,s1,a4
    1946:	409c                	lw	a5,0(s1)
    1948:	97ba                	add	a5,a5,a4
    194a:	8782                	jr	a5
    194c:	0ff40413          	addi	s0,s0,255
    1950:	0c0a9663          	bnez	s5,1a1c <__mulsf3+0x166>
    1954:	0024e493          	ori	s1,s1,2
    1958:	4609                	li	a2,2
    195a:	bfc1                	j	192a <__mulsf3+0x74>
    195c:	4501                	li	a0,0
    195e:	0ff00713          	li	a4,255
    1962:	004007b7          	lui	a5,0x400
    1966:	50b2                	lw	ra,44(sp)
    1968:	5422                	lw	s0,40(sp)
    196a:	07a6                	slli	a5,a5,0x9
    196c:	075e                	slli	a4,a4,0x17
    196e:	83a5                	srli	a5,a5,0x9
    1970:	057e                	slli	a0,a0,0x1f
    1972:	8fd9                	or	a5,a5,a4
    1974:	5492                	lw	s1,36(sp)
    1976:	5902                	lw	s2,32(sp)
    1978:	49f2                	lw	s3,28(sp)
    197a:	4a62                	lw	s4,24(sp)
    197c:	4ad2                	lw	s5,20(sp)
    197e:	4b42                	lw	s6,16(sp)
    1980:	8d5d                	or	a0,a0,a5
    1982:	6145                	addi	sp,sp,48
    1984:	8082                	ret
    1986:	86ca                	mv	a3,s2
    1988:	89d6                	mv	s3,s5
    198a:	8b32                	mv	s6,a2
    198c:	4789                	li	a5,2
    198e:	08fb0f63          	beq	s6,a5,1a2c <__mulsf3+0x176>
    1992:	478d                	li	a5,3
    1994:	fcfb04e3          	beq	s6,a5,195c <__mulsf3+0xa6>
    1998:	4785                	li	a5,1
    199a:	8536                	mv	a0,a3
    199c:	1afb1063          	bne	s6,a5,1b3c <__mulsf3+0x286>
    19a0:	4701                	li	a4,0
    19a2:	4781                	li	a5,0
    19a4:	b7c9                	j	1966 <__mulsf3+0xb0>
    19a6:	04099d63          	bnez	s3,1a00 <__mulsf3+0x14a>
    19aa:	0175d713          	srli	a4,a1,0x17
    19ae:	00959a93          	slli	s5,a1,0x9
    19b2:	0ff77713          	andi	a4,a4,255
    19b6:	4491                	li	s1,4
    19b8:	4401                	li	s0,0
    19ba:	4b05                	li	s6,1
    19bc:	009ada93          	srli	s5,s5,0x9
    19c0:	01f5d913          	srli	s2,a1,0x1f
    19c4:	f731                	bnez	a4,1910 <__mulsf3+0x5a>
    19c6:	000a9d63          	bnez	s5,19e0 <__mulsf3+0x12a>
    19ca:	0014e493          	ori	s1,s1,1
    19ce:	4605                	li	a2,1
    19d0:	bfa9                	j	192a <__mulsf3+0x74>
    19d2:	02099263          	bnez	s3,19f6 <__mulsf3+0x140>
    19d6:	44a1                	li	s1,8
    19d8:	0ff00413          	li	s0,255
    19dc:	4b09                	li	s6,2
    19de:	bf31                	j	18fa <__mulsf3+0x44>
    19e0:	8556                	mv	a0,s5
    19e2:	2471                	jal	1c6e <__clzsi2>
    19e4:	ffb50793          	addi	a5,a0,-5
    19e8:	8c09                	sub	s0,s0,a0
    19ea:	00fa9ab3          	sll	s5,s5,a5
    19ee:	f8a40413          	addi	s0,s0,-118
    19f2:	4601                	li	a2,0
    19f4:	bf1d                	j	192a <__mulsf3+0x74>
    19f6:	44b1                	li	s1,12
    19f8:	0ff00413          	li	s0,255
    19fc:	4b0d                	li	s6,3
    19fe:	bdf5                	j	18fa <__mulsf3+0x44>
    1a00:	854e                	mv	a0,s3
    1a02:	c62e                	sw	a1,12(sp)
    1a04:	24ad                	jal	1c6e <__clzsi2>
    1a06:	ffb50793          	addi	a5,a0,-5
    1a0a:	f8a00413          	li	s0,-118
    1a0e:	00f999b3          	sll	s3,s3,a5
    1a12:	8c09                	sub	s0,s0,a0
    1a14:	4481                	li	s1,0
    1a16:	4b01                	li	s6,0
    1a18:	45b2                	lw	a1,12(sp)
    1a1a:	b5c5                	j	18fa <__mulsf3+0x44>
    1a1c:	0034e493          	ori	s1,s1,3
    1a20:	460d                	li	a2,3
    1a22:	b721                	j	192a <__mulsf3+0x74>
    1a24:	4789                	li	a5,2
    1a26:	86d2                	mv	a3,s4
    1a28:	f6fb15e3          	bne	s6,a5,1992 <__mulsf3+0xdc>
    1a2c:	8536                	mv	a0,a3
    1a2e:	0ff00713          	li	a4,255
    1a32:	4781                	li	a5,0
    1a34:	bf0d                	j	1966 <__mulsf3+0xb0>
    1a36:	6341                	lui	t1,0x10
    1a38:	fff30693          	addi	a3,t1,-1 # ffff <_data_lma+0xcf1f>
    1a3c:	0109d613          	srli	a2,s3,0x10
    1a40:	010ad893          	srli	a7,s5,0x10
    1a44:	00d9f7b3          	and	a5,s3,a3
    1a48:	00dafab3          	and	s5,s5,a3
    1a4c:	03578833          	mul	a6,a5,s5
    1a50:	02f889b3          	mul	s3,a7,a5
    1a54:	01085713          	srli	a4,a6,0x10
    1a58:	03560ab3          	mul	s5,a2,s5
    1a5c:	99d6                	add	s3,s3,s5
    1a5e:	974e                	add	a4,a4,s3
    1a60:	03160633          	mul	a2,a2,a7
    1a64:	01577363          	bgeu	a4,s5,1a6a <__mulsf3+0x1b4>
    1a68:	961a                	add	a2,a2,t1
    1a6a:	67c1                	lui	a5,0x10
    1a6c:	17fd                	addi	a5,a5,-1
    1a6e:	00f776b3          	and	a3,a4,a5
    1a72:	00f87833          	and	a6,a6,a5
    1a76:	06c2                	slli	a3,a3,0x10
    1a78:	96c2                	add	a3,a3,a6
    1a7a:	00669993          	slli	s3,a3,0x6
    1a7e:	01075793          	srli	a5,a4,0x10
    1a82:	013039b3          	snez	s3,s3
    1a86:	82e9                	srli	a3,a3,0x1a
    1a88:	97b2                	add	a5,a5,a2
    1a8a:	079a                	slli	a5,a5,0x6
    1a8c:	00d9e6b3          	or	a3,s3,a3
    1a90:	00d7e9b3          	or	s3,a5,a3
    1a94:	00499793          	slli	a5,s3,0x4
    1a98:	0007d963          	bgez	a5,1aaa <__mulsf3+0x1f4>
    1a9c:	0019d713          	srli	a4,s3,0x1
    1aa0:	0019f793          	andi	a5,s3,1
    1aa4:	00f769b3          	or	s3,a4,a5
    1aa8:	842e                	mv	s0,a1
    1aaa:	07f40713          	addi	a4,s0,127
    1aae:	04e05063          	blez	a4,1aee <__mulsf3+0x238>
    1ab2:	0079f793          	andi	a5,s3,7
    1ab6:	c799                	beqz	a5,1ac4 <__mulsf3+0x20e>
    1ab8:	00f9f793          	andi	a5,s3,15
    1abc:	4691                	li	a3,4
    1abe:	00d78363          	beq	a5,a3,1ac4 <__mulsf3+0x20e>
    1ac2:	0991                	addi	s3,s3,4
    1ac4:	00499793          	slli	a5,s3,0x4
    1ac8:	0007d963          	bgez	a5,1ada <__mulsf3+0x224>
    1acc:	f80007b7          	lui	a5,0xf8000
    1ad0:	17fd                	addi	a5,a5,-1
    1ad2:	00f9f9b3          	and	s3,s3,a5
    1ad6:	08040713          	addi	a4,s0,128
    1ada:	0fe00793          	li	a5,254
    1ade:	04e7cb63          	blt	a5,a4,1b34 <__mulsf3+0x27e>
    1ae2:	00699793          	slli	a5,s3,0x6
    1ae6:	83a5                	srli	a5,a5,0x9
    1ae8:	0ff77713          	andi	a4,a4,255
    1aec:	bdad                	j	1966 <__mulsf3+0xb0>
    1aee:	4785                	li	a5,1
    1af0:	40e786b3          	sub	a3,a5,a4
    1af4:	c711                	beqz	a4,1b00 <__mulsf3+0x24a>
    1af6:	466d                	li	a2,27
    1af8:	4701                	li	a4,0
    1afa:	4781                	li	a5,0
    1afc:	e6d645e3          	blt	a2,a3,1966 <__mulsf3+0xb0>
    1b00:	09e40713          	addi	a4,s0,158
    1b04:	00e99733          	sll	a4,s3,a4
    1b08:	00e03733          	snez	a4,a4
    1b0c:	00d9d7b3          	srl	a5,s3,a3
    1b10:	8fd9                	or	a5,a5,a4
    1b12:	0077f713          	andi	a4,a5,7
    1b16:	c719                	beqz	a4,1b24 <__mulsf3+0x26e>
    1b18:	00f7f713          	andi	a4,a5,15
    1b1c:	4691                	li	a3,4
    1b1e:	00d70363          	beq	a4,a3,1b24 <__mulsf3+0x26e>
    1b22:	0791                	addi	a5,a5,4
    1b24:	00579713          	slli	a4,a5,0x5
    1b28:	00074c63          	bltz	a4,1b40 <__mulsf3+0x28a>
    1b2c:	079a                	slli	a5,a5,0x6
    1b2e:	83a5                	srli	a5,a5,0x9
    1b30:	4701                	li	a4,0
    1b32:	bd15                	j	1966 <__mulsf3+0xb0>
    1b34:	0ff00713          	li	a4,255
    1b38:	4781                	li	a5,0
    1b3a:	b535                	j	1966 <__mulsf3+0xb0>
    1b3c:	842e                	mv	s0,a1
    1b3e:	b7b5                	j	1aaa <__mulsf3+0x1f4>
    1b40:	4705                	li	a4,1
    1b42:	4781                	li	a5,0
    1b44:	b50d                	j	1966 <__mulsf3+0xb0>

00001b46 <__fixsfsi>:
    1b46:	00800637          	lui	a2,0x800
    1b4a:	01755713          	srli	a4,a0,0x17
    1b4e:	fff60793          	addi	a5,a2,-1 # 7fffff <_data_lma+0x7fcf1f>
    1b52:	0ff77713          	andi	a4,a4,255
    1b56:	07e00593          	li	a1,126
    1b5a:	00a7f6b3          	and	a3,a5,a0
    1b5e:	01f55793          	srli	a5,a0,0x1f
    1b62:	00e5fc63          	bgeu	a1,a4,1b7a <__fixsfsi+0x34>
    1b66:	09d00593          	li	a1,157
    1b6a:	00e5fa63          	bgeu	a1,a4,1b7e <__fixsfsi+0x38>
    1b6e:	80000537          	lui	a0,0x80000
    1b72:	fff54513          	not	a0,a0
    1b76:	953e                	add	a0,a0,a5
    1b78:	8082                	ret
    1b7a:	4501                	li	a0,0
    1b7c:	8082                	ret
    1b7e:	09500593          	li	a1,149
    1b82:	8ed1                	or	a3,a3,a2
    1b84:	00e5cd63          	blt	a1,a4,1b9e <__fixsfsi+0x58>
    1b88:	09600613          	li	a2,150
    1b8c:	40e60733          	sub	a4,a2,a4
    1b90:	00e6d733          	srl	a4,a3,a4
    1b94:	40e00533          	neg	a0,a4
    1b98:	f3f5                	bnez	a5,1b7c <__fixsfsi+0x36>
    1b9a:	853a                	mv	a0,a4
    1b9c:	8082                	ret
    1b9e:	f6a70713          	addi	a4,a4,-150
    1ba2:	00e69733          	sll	a4,a3,a4
    1ba6:	b7fd                	j	1b94 <__fixsfsi+0x4e>

00001ba8 <__floatsisf>:
    1ba8:	1141                	addi	sp,sp,-16
    1baa:	c606                	sw	ra,12(sp)
    1bac:	c422                	sw	s0,8(sp)
    1bae:	c226                	sw	s1,4(sp)
    1bb0:	cd0d                	beqz	a0,1bea <__floatsisf+0x42>
    1bb2:	41f55793          	srai	a5,a0,0x1f
    1bb6:	00a7c433          	xor	s0,a5,a0
    1bba:	8c1d                	sub	s0,s0,a5
    1bbc:	84aa                	mv	s1,a0
    1bbe:	8522                	mv	a0,s0
    1bc0:	207d                	jal	1c6e <__clzsi2>
    1bc2:	09e00793          	li	a5,158
    1bc6:	40a78733          	sub	a4,a5,a0
    1bca:	09600793          	li	a5,150
    1bce:	80fd                	srli	s1,s1,0x1f
    1bd0:	02e7cc63          	blt	a5,a4,1c08 <__floatsisf+0x60>
    1bd4:	46a1                	li	a3,8
    1bd6:	0ff77793          	andi	a5,a4,255
    1bda:	00a6d563          	bge	a3,a0,1be4 <__floatsisf+0x3c>
    1bde:	1561                	addi	a0,a0,-8
    1be0:	00a41433          	sll	s0,s0,a0
    1be4:	0426                	slli	s0,s0,0x9
    1be6:	8025                	srli	s0,s0,0x9
    1be8:	a021                	j	1bf0 <__floatsisf+0x48>
    1bea:	4481                	li	s1,0
    1bec:	4781                	li	a5,0
    1bee:	4401                	li	s0,0
    1bf0:	0426                	slli	s0,s0,0x9
    1bf2:	00945513          	srli	a0,s0,0x9
    1bf6:	40b2                	lw	ra,12(sp)
    1bf8:	4422                	lw	s0,8(sp)
    1bfa:	07de                	slli	a5,a5,0x17
    1bfc:	04fe                	slli	s1,s1,0x1f
    1bfe:	8d5d                	or	a0,a0,a5
    1c00:	8d45                	or	a0,a0,s1
    1c02:	4492                	lw	s1,4(sp)
    1c04:	0141                	addi	sp,sp,16
    1c06:	8082                	ret
    1c08:	09900793          	li	a5,153
    1c0c:	00e7dd63          	bge	a5,a4,1c26 <__floatsisf+0x7e>
    1c10:	01b50793          	addi	a5,a0,27 # 8000001b <_eusrstack+0x5fff801b>
    1c14:	4695                	li	a3,5
    1c16:	00f417b3          	sll	a5,s0,a5
    1c1a:	8e89                	sub	a3,a3,a0
    1c1c:	00d45433          	srl	s0,s0,a3
    1c20:	00f037b3          	snez	a5,a5
    1c24:	8c5d                	or	s0,s0,a5
    1c26:	4795                	li	a5,5
    1c28:	00a7d663          	bge	a5,a0,1c34 <__floatsisf+0x8c>
    1c2c:	ffb50793          	addi	a5,a0,-5
    1c30:	00f41433          	sll	s0,s0,a5
    1c34:	fc0006b7          	lui	a3,0xfc000
    1c38:	16fd                	addi	a3,a3,-1
    1c3a:	00747793          	andi	a5,s0,7
    1c3e:	00d47633          	and	a2,s0,a3
    1c42:	c385                	beqz	a5,1c62 <__floatsisf+0xba>
    1c44:	00f47793          	andi	a5,s0,15
    1c48:	4591                	li	a1,4
    1c4a:	00b78c63          	beq	a5,a1,1c62 <__floatsisf+0xba>
    1c4e:	0611                	addi	a2,a2,4
    1c50:	00561793          	slli	a5,a2,0x5
    1c54:	0007d763          	bgez	a5,1c62 <__floatsisf+0xba>
    1c58:	09f00793          	li	a5,159
    1c5c:	8e75                	and	a2,a2,a3
    1c5e:	40a78733          	sub	a4,a5,a0
    1c62:	00661413          	slli	s0,a2,0x6
    1c66:	8025                	srli	s0,s0,0x9
    1c68:	0ff77793          	andi	a5,a4,255
    1c6c:	b751                	j	1bf0 <__floatsisf+0x48>

00001c6e <__clzsi2>:
    1c6e:	67c1                	lui	a5,0x10
    1c70:	02f57c63          	bgeu	a0,a5,1ca8 <__clzsi2+0x3a>
    1c74:	0ff00793          	li	a5,255
    1c78:	02000713          	li	a4,32
    1c7c:	00a7eb63          	bltu	a5,a0,1c92 <__clzsi2+0x24>
    1c80:	00001797          	auipc	a5,0x1
    1c84:	2c478793          	addi	a5,a5,708 # 2f44 <__clz_tab>
    1c88:	97aa                	add	a5,a5,a0
    1c8a:	2388                	lbu	a0,0(a5)
    1c8c:	40a70533          	sub	a0,a4,a0
    1c90:	8082                	ret
    1c92:	8121                	srli	a0,a0,0x8
    1c94:	00001797          	auipc	a5,0x1
    1c98:	2b078793          	addi	a5,a5,688 # 2f44 <__clz_tab>
    1c9c:	97aa                	add	a5,a5,a0
    1c9e:	2388                	lbu	a0,0(a5)
    1ca0:	4761                	li	a4,24
    1ca2:	40a70533          	sub	a0,a4,a0
    1ca6:	8082                	ret
    1ca8:	010007b7          	lui	a5,0x1000
    1cac:	00f56d63          	bltu	a0,a5,1cc6 <__clzsi2+0x58>
    1cb0:	8161                	srli	a0,a0,0x18
    1cb2:	00001797          	auipc	a5,0x1
    1cb6:	29278793          	addi	a5,a5,658 # 2f44 <__clz_tab>
    1cba:	97aa                	add	a5,a5,a0
    1cbc:	2388                	lbu	a0,0(a5)
    1cbe:	4721                	li	a4,8
    1cc0:	40a70533          	sub	a0,a4,a0
    1cc4:	8082                	ret
    1cc6:	8141                	srli	a0,a0,0x10
    1cc8:	00001797          	auipc	a5,0x1
    1ccc:	27c78793          	addi	a5,a5,636 # 2f44 <__clz_tab>
    1cd0:	97aa                	add	a5,a5,a0
    1cd2:	2388                	lbu	a0,0(a5)
    1cd4:	4741                	li	a4,16
    1cd6:	40a70533          	sub	a0,a4,a0
    1cda:	8082                	ret

00001cdc <iprintf>:
    1cdc:	7139                	addi	sp,sp,-64
    1cde:	da3e                	sw	a5,52(sp)
    1ce0:	d22e                	sw	a1,36(sp)
    1ce2:	d432                	sw	a2,40(sp)
    1ce4:	d636                	sw	a3,44(sp)
    1ce6:	d83a                	sw	a4,48(sp)
    1ce8:	dc42                	sw	a6,56(sp)
    1cea:	de46                	sw	a7,60(sp)
    1cec:	80c18793          	addi	a5,gp,-2036 # 2000008c <_impure_ptr>
    1cf0:	cc22                	sw	s0,24(sp)
    1cf2:	4380                	lw	s0,0(a5)
    1cf4:	ca26                	sw	s1,20(sp)
    1cf6:	ce06                	sw	ra,28(sp)
    1cf8:	84aa                	mv	s1,a0
    1cfa:	c409                	beqz	s0,1d04 <iprintf+0x28>
    1cfc:	4c1c                	lw	a5,24(s0)
    1cfe:	e399                	bnez	a5,1d04 <iprintf+0x28>
    1d00:	8522                	mv	a0,s0
    1d02:	2931                	jal	211e <__sinit>
    1d04:	440c                	lw	a1,8(s0)
    1d06:	1054                	addi	a3,sp,36
    1d08:	8626                	mv	a2,s1
    1d0a:	8522                	mv	a0,s0
    1d0c:	c636                	sw	a3,12(sp)
    1d0e:	049000ef          	jal	ra,2556 <_vfiprintf_r>
    1d12:	40f2                	lw	ra,28(sp)
    1d14:	4462                	lw	s0,24(sp)
    1d16:	44d2                	lw	s1,20(sp)
    1d18:	6121                	addi	sp,sp,64
    1d1a:	8082                	ret

00001d1c <__swbuf_r>:
    1d1c:	1101                	addi	sp,sp,-32
    1d1e:	cc22                	sw	s0,24(sp)
    1d20:	ca26                	sw	s1,20(sp)
    1d22:	c84a                	sw	s2,16(sp)
    1d24:	ce06                	sw	ra,28(sp)
    1d26:	c64e                	sw	s3,12(sp)
    1d28:	84aa                	mv	s1,a0
    1d2a:	892e                	mv	s2,a1
    1d2c:	8432                	mv	s0,a2
    1d2e:	c501                	beqz	a0,1d36 <__swbuf_r+0x1a>
    1d30:	4d1c                	lw	a5,24(a0)
    1d32:	e391                	bnez	a5,1d36 <__swbuf_r+0x1a>
    1d34:	26ed                	jal	211e <__sinit>
    1d36:	00001797          	auipc	a5,0x1
    1d3a:	32e78793          	addi	a5,a5,814 # 3064 <__sf_fake_stdin>
    1d3e:	06f41763          	bne	s0,a5,1dac <__swbuf_r+0x90>
    1d42:	40c0                	lw	s0,4(s1)
    1d44:	4c1c                	lw	a5,24(s0)
    1d46:	c41c                	sw	a5,8(s0)
    1d48:	245e                	lhu	a5,12(s0)
    1d4a:	8ba1                	andi	a5,a5,8
    1d4c:	c3c1                	beqz	a5,1dcc <__swbuf_r+0xb0>
    1d4e:	481c                	lw	a5,16(s0)
    1d50:	cfb5                	beqz	a5,1dcc <__swbuf_r+0xb0>
    1d52:	481c                	lw	a5,16(s0)
    1d54:	4008                	lw	a0,0(s0)
    1d56:	0ff97993          	andi	s3,s2,255
    1d5a:	0ff97913          	andi	s2,s2,255
    1d5e:	8d1d                	sub	a0,a0,a5
    1d60:	485c                	lw	a5,20(s0)
    1d62:	00f54663          	blt	a0,a5,1d6e <__swbuf_r+0x52>
    1d66:	85a2                	mv	a1,s0
    1d68:	8526                	mv	a0,s1
    1d6a:	2c69                	jal	2004 <_fflush_r>
    1d6c:	e525                	bnez	a0,1dd4 <__swbuf_r+0xb8>
    1d6e:	441c                	lw	a5,8(s0)
    1d70:	0505                	addi	a0,a0,1
    1d72:	17fd                	addi	a5,a5,-1
    1d74:	c41c                	sw	a5,8(s0)
    1d76:	401c                	lw	a5,0(s0)
    1d78:	00178713          	addi	a4,a5,1
    1d7c:	c018                	sw	a4,0(s0)
    1d7e:	01378023          	sb	s3,0(a5)
    1d82:	485c                	lw	a5,20(s0)
    1d84:	00a78863          	beq	a5,a0,1d94 <__swbuf_r+0x78>
    1d88:	245e                	lhu	a5,12(s0)
    1d8a:	8b85                	andi	a5,a5,1
    1d8c:	cb81                	beqz	a5,1d9c <__swbuf_r+0x80>
    1d8e:	47a9                	li	a5,10
    1d90:	00f91663          	bne	s2,a5,1d9c <__swbuf_r+0x80>
    1d94:	85a2                	mv	a1,s0
    1d96:	8526                	mv	a0,s1
    1d98:	24b5                	jal	2004 <_fflush_r>
    1d9a:	ed0d                	bnez	a0,1dd4 <__swbuf_r+0xb8>
    1d9c:	40f2                	lw	ra,28(sp)
    1d9e:	4462                	lw	s0,24(sp)
    1da0:	854a                	mv	a0,s2
    1da2:	44d2                	lw	s1,20(sp)
    1da4:	4942                	lw	s2,16(sp)
    1da6:	49b2                	lw	s3,12(sp)
    1da8:	6105                	addi	sp,sp,32
    1daa:	8082                	ret
    1dac:	00001797          	auipc	a5,0x1
    1db0:	2d878793          	addi	a5,a5,728 # 3084 <__sf_fake_stdout>
    1db4:	00f41463          	bne	s0,a5,1dbc <__swbuf_r+0xa0>
    1db8:	4480                	lw	s0,8(s1)
    1dba:	b769                	j	1d44 <__swbuf_r+0x28>
    1dbc:	00001797          	auipc	a5,0x1
    1dc0:	28878793          	addi	a5,a5,648 # 3044 <__sf_fake_stderr>
    1dc4:	f8f410e3          	bne	s0,a5,1d44 <__swbuf_r+0x28>
    1dc8:	44c0                	lw	s0,12(s1)
    1dca:	bfad                	j	1d44 <__swbuf_r+0x28>
    1dcc:	85a2                	mv	a1,s0
    1dce:	8526                	mv	a0,s1
    1dd0:	2021                	jal	1dd8 <__swsetup_r>
    1dd2:	d141                	beqz	a0,1d52 <__swbuf_r+0x36>
    1dd4:	597d                	li	s2,-1
    1dd6:	b7d9                	j	1d9c <__swbuf_r+0x80>

00001dd8 <__swsetup_r>:
    1dd8:	1141                	addi	sp,sp,-16
    1dda:	80c18793          	addi	a5,gp,-2036 # 2000008c <_impure_ptr>
    1dde:	c226                	sw	s1,4(sp)
    1de0:	4384                	lw	s1,0(a5)
    1de2:	c422                	sw	s0,8(sp)
    1de4:	c04a                	sw	s2,0(sp)
    1de6:	c606                	sw	ra,12(sp)
    1de8:	892a                	mv	s2,a0
    1dea:	842e                	mv	s0,a1
    1dec:	c489                	beqz	s1,1df6 <__swsetup_r+0x1e>
    1dee:	4c9c                	lw	a5,24(s1)
    1df0:	e399                	bnez	a5,1df6 <__swsetup_r+0x1e>
    1df2:	8526                	mv	a0,s1
    1df4:	262d                	jal	211e <__sinit>
    1df6:	00001797          	auipc	a5,0x1
    1dfa:	26e78793          	addi	a5,a5,622 # 3064 <__sf_fake_stdin>
    1dfe:	02f41b63          	bne	s0,a5,1e34 <__swsetup_r+0x5c>
    1e02:	40c0                	lw	s0,4(s1)
    1e04:	00c41703          	lh	a4,12(s0)
    1e08:	01071793          	slli	a5,a4,0x10
    1e0c:	83c1                	srli	a5,a5,0x10
    1e0e:	0087f693          	andi	a3,a5,8
    1e12:	eaad                	bnez	a3,1e84 <__swsetup_r+0xac>
    1e14:	0107f693          	andi	a3,a5,16
    1e18:	ee95                	bnez	a3,1e54 <__swsetup_r+0x7c>
    1e1a:	47a5                	li	a5,9
    1e1c:	00f92023          	sw	a5,0(s2)
    1e20:	04076713          	ori	a4,a4,64
    1e24:	a45a                	sh	a4,12(s0)
    1e26:	557d                	li	a0,-1
    1e28:	40b2                	lw	ra,12(sp)
    1e2a:	4422                	lw	s0,8(sp)
    1e2c:	4492                	lw	s1,4(sp)
    1e2e:	4902                	lw	s2,0(sp)
    1e30:	0141                	addi	sp,sp,16
    1e32:	8082                	ret
    1e34:	00001797          	auipc	a5,0x1
    1e38:	25078793          	addi	a5,a5,592 # 3084 <__sf_fake_stdout>
    1e3c:	00f41463          	bne	s0,a5,1e44 <__swsetup_r+0x6c>
    1e40:	4480                	lw	s0,8(s1)
    1e42:	b7c9                	j	1e04 <__swsetup_r+0x2c>
    1e44:	00001797          	auipc	a5,0x1
    1e48:	20078793          	addi	a5,a5,512 # 3044 <__sf_fake_stderr>
    1e4c:	faf41ce3          	bne	s0,a5,1e04 <__swsetup_r+0x2c>
    1e50:	44c0                	lw	s0,12(s1)
    1e52:	bf4d                	j	1e04 <__swsetup_r+0x2c>
    1e54:	8b91                	andi	a5,a5,4
    1e56:	c39d                	beqz	a5,1e7c <__swsetup_r+0xa4>
    1e58:	584c                	lw	a1,52(s0)
    1e5a:	c989                	beqz	a1,1e6c <__swsetup_r+0x94>
    1e5c:	04440793          	addi	a5,s0,68
    1e60:	00f58463          	beq	a1,a5,1e68 <__swsetup_r+0x90>
    1e64:	854a                	mv	a0,s2
    1e66:	2331                	jal	2372 <_free_r>
    1e68:	02042a23          	sw	zero,52(s0)
    1e6c:	245e                	lhu	a5,12(s0)
    1e6e:	00042223          	sw	zero,4(s0)
    1e72:	fdb7f793          	andi	a5,a5,-37
    1e76:	a45e                	sh	a5,12(s0)
    1e78:	481c                	lw	a5,16(s0)
    1e7a:	c01c                	sw	a5,0(s0)
    1e7c:	245e                	lhu	a5,12(s0)
    1e7e:	0087e793          	ori	a5,a5,8
    1e82:	a45e                	sh	a5,12(s0)
    1e84:	481c                	lw	a5,16(s0)
    1e86:	eb99                	bnez	a5,1e9c <__swsetup_r+0xc4>
    1e88:	245e                	lhu	a5,12(s0)
    1e8a:	20000713          	li	a4,512
    1e8e:	2807f793          	andi	a5,a5,640
    1e92:	00e78563          	beq	a5,a4,1e9c <__swsetup_r+0xc4>
    1e96:	85a2                	mv	a1,s0
    1e98:	854a                	mv	a0,s2
    1e9a:	21a1                	jal	22e2 <__smakebuf_r>
    1e9c:	245e                	lhu	a5,12(s0)
    1e9e:	0017f713          	andi	a4,a5,1
    1ea2:	c31d                	beqz	a4,1ec8 <__swsetup_r+0xf0>
    1ea4:	485c                	lw	a5,20(s0)
    1ea6:	00042423          	sw	zero,8(s0)
    1eaa:	40f007b3          	neg	a5,a5
    1eae:	cc1c                	sw	a5,24(s0)
    1eb0:	481c                	lw	a5,16(s0)
    1eb2:	4501                	li	a0,0
    1eb4:	fbb5                	bnez	a5,1e28 <__swsetup_r+0x50>
    1eb6:	00c41783          	lh	a5,12(s0)
    1eba:	0807f713          	andi	a4,a5,128
    1ebe:	d72d                	beqz	a4,1e28 <__swsetup_r+0x50>
    1ec0:	0407e793          	ori	a5,a5,64
    1ec4:	a45e                	sh	a5,12(s0)
    1ec6:	b785                	j	1e26 <__swsetup_r+0x4e>
    1ec8:	8b89                	andi	a5,a5,2
    1eca:	4701                	li	a4,0
    1ecc:	e391                	bnez	a5,1ed0 <__swsetup_r+0xf8>
    1ece:	4858                	lw	a4,20(s0)
    1ed0:	c418                	sw	a4,8(s0)
    1ed2:	bff9                	j	1eb0 <__swsetup_r+0xd8>

00001ed4 <__sflush_r>:
    1ed4:	25de                	lhu	a5,12(a1)
    1ed6:	1101                	addi	sp,sp,-32
    1ed8:	cc22                	sw	s0,24(sp)
    1eda:	ca26                	sw	s1,20(sp)
    1edc:	ce06                	sw	ra,28(sp)
    1ede:	c84a                	sw	s2,16(sp)
    1ee0:	c64e                	sw	s3,12(sp)
    1ee2:	0087f713          	andi	a4,a5,8
    1ee6:	84aa                	mv	s1,a0
    1ee8:	842e                	mv	s0,a1
    1eea:	eb79                	bnez	a4,1fc0 <__sflush_r+0xec>
    1eec:	41d8                	lw	a4,4(a1)
    1eee:	00e04d63          	bgtz	a4,1f08 <__sflush_r+0x34>
    1ef2:	41b8                	lw	a4,64(a1)
    1ef4:	00e04a63          	bgtz	a4,1f08 <__sflush_r+0x34>
    1ef8:	4501                	li	a0,0
    1efa:	40f2                	lw	ra,28(sp)
    1efc:	4462                	lw	s0,24(sp)
    1efe:	44d2                	lw	s1,20(sp)
    1f00:	4942                	lw	s2,16(sp)
    1f02:	49b2                	lw	s3,12(sp)
    1f04:	6105                	addi	sp,sp,32
    1f06:	8082                	ret
    1f08:	5458                	lw	a4,44(s0)
    1f0a:	d77d                	beqz	a4,1ef8 <__sflush_r+0x24>
    1f0c:	0004a903          	lw	s2,0(s1)
    1f10:	01379693          	slli	a3,a5,0x13
    1f14:	0004a023          	sw	zero,0(s1)
    1f18:	0606db63          	bgez	a3,1f8e <__sflush_r+0xba>
    1f1c:	4870                	lw	a2,84(s0)
    1f1e:	245e                	lhu	a5,12(s0)
    1f20:	8b91                	andi	a5,a5,4
    1f22:	c799                	beqz	a5,1f30 <__sflush_r+0x5c>
    1f24:	405c                	lw	a5,4(s0)
    1f26:	8e1d                	sub	a2,a2,a5
    1f28:	585c                	lw	a5,52(s0)
    1f2a:	c399                	beqz	a5,1f30 <__sflush_r+0x5c>
    1f2c:	403c                	lw	a5,64(s0)
    1f2e:	8e1d                	sub	a2,a2,a5
    1f30:	545c                	lw	a5,44(s0)
    1f32:	500c                	lw	a1,32(s0)
    1f34:	4681                	li	a3,0
    1f36:	8526                	mv	a0,s1
    1f38:	9782                	jalr	a5
    1f3a:	57fd                	li	a5,-1
    1f3c:	245a                	lhu	a4,12(s0)
    1f3e:	00f51d63          	bne	a0,a5,1f58 <__sflush_r+0x84>
    1f42:	4094                	lw	a3,0(s1)
    1f44:	47f5                	li	a5,29
    1f46:	06d7e863          	bltu	a5,a3,1fb6 <__sflush_r+0xe2>
    1f4a:	204007b7          	lui	a5,0x20400
    1f4e:	0785                	addi	a5,a5,1
    1f50:	00d7d7b3          	srl	a5,a5,a3
    1f54:	8b85                	andi	a5,a5,1
    1f56:	c3a5                	beqz	a5,1fb6 <__sflush_r+0xe2>
    1f58:	481c                	lw	a5,16(s0)
    1f5a:	00042223          	sw	zero,4(s0)
    1f5e:	c01c                	sw	a5,0(s0)
    1f60:	01371793          	slli	a5,a4,0x13
    1f64:	0007d863          	bgez	a5,1f74 <__sflush_r+0xa0>
    1f68:	57fd                	li	a5,-1
    1f6a:	00f51463          	bne	a0,a5,1f72 <__sflush_r+0x9e>
    1f6e:	409c                	lw	a5,0(s1)
    1f70:	e391                	bnez	a5,1f74 <__sflush_r+0xa0>
    1f72:	c868                	sw	a0,84(s0)
    1f74:	584c                	lw	a1,52(s0)
    1f76:	0124a023          	sw	s2,0(s1)
    1f7a:	ddbd                	beqz	a1,1ef8 <__sflush_r+0x24>
    1f7c:	04440793          	addi	a5,s0,68
    1f80:	00f58463          	beq	a1,a5,1f88 <__sflush_r+0xb4>
    1f84:	8526                	mv	a0,s1
    1f86:	26f5                	jal	2372 <_free_r>
    1f88:	02042a23          	sw	zero,52(s0)
    1f8c:	b7b5                	j	1ef8 <__sflush_r+0x24>
    1f8e:	500c                	lw	a1,32(s0)
    1f90:	4601                	li	a2,0
    1f92:	4685                	li	a3,1
    1f94:	8526                	mv	a0,s1
    1f96:	9702                	jalr	a4
    1f98:	57fd                	li	a5,-1
    1f9a:	862a                	mv	a2,a0
    1f9c:	f8f511e3          	bne	a0,a5,1f1e <__sflush_r+0x4a>
    1fa0:	409c                	lw	a5,0(s1)
    1fa2:	dfb5                	beqz	a5,1f1e <__sflush_r+0x4a>
    1fa4:	4775                	li	a4,29
    1fa6:	00e78563          	beq	a5,a4,1fb0 <__sflush_r+0xdc>
    1faa:	4759                	li	a4,22
    1fac:	04e79363          	bne	a5,a4,1ff2 <__sflush_r+0x11e>
    1fb0:	0124a023          	sw	s2,0(s1)
    1fb4:	b791                	j	1ef8 <__sflush_r+0x24>
    1fb6:	04076713          	ori	a4,a4,64
    1fba:	a45a                	sh	a4,12(s0)
    1fbc:	557d                	li	a0,-1
    1fbe:	bf35                	j	1efa <__sflush_r+0x26>
    1fc0:	0105a983          	lw	s3,16(a1)
    1fc4:	f2098ae3          	beqz	s3,1ef8 <__sflush_r+0x24>
    1fc8:	0005a903          	lw	s2,0(a1)
    1fcc:	8b8d                	andi	a5,a5,3
    1fce:	0135a023          	sw	s3,0(a1)
    1fd2:	41390933          	sub	s2,s2,s3
    1fd6:	4701                	li	a4,0
    1fd8:	e391                	bnez	a5,1fdc <__sflush_r+0x108>
    1fda:	49d8                	lw	a4,20(a1)
    1fdc:	c418                	sw	a4,8(s0)
    1fde:	f1205de3          	blez	s2,1ef8 <__sflush_r+0x24>
    1fe2:	541c                	lw	a5,40(s0)
    1fe4:	500c                	lw	a1,32(s0)
    1fe6:	86ca                	mv	a3,s2
    1fe8:	864e                	mv	a2,s3
    1fea:	8526                	mv	a0,s1
    1fec:	9782                	jalr	a5
    1fee:	00a04763          	bgtz	a0,1ffc <__sflush_r+0x128>
    1ff2:	245e                	lhu	a5,12(s0)
    1ff4:	0407e793          	ori	a5,a5,64
    1ff8:	a45e                	sh	a5,12(s0)
    1ffa:	b7c9                	j	1fbc <__sflush_r+0xe8>
    1ffc:	99aa                	add	s3,s3,a0
    1ffe:	40a90933          	sub	s2,s2,a0
    2002:	bff1                	j	1fde <__sflush_r+0x10a>

00002004 <_fflush_r>:
    2004:	499c                	lw	a5,16(a1)
    2006:	cfb9                	beqz	a5,2064 <_fflush_r+0x60>
    2008:	1101                	addi	sp,sp,-32
    200a:	cc22                	sw	s0,24(sp)
    200c:	ce06                	sw	ra,28(sp)
    200e:	842a                	mv	s0,a0
    2010:	c511                	beqz	a0,201c <_fflush_r+0x18>
    2012:	4d1c                	lw	a5,24(a0)
    2014:	e781                	bnez	a5,201c <_fflush_r+0x18>
    2016:	c62e                	sw	a1,12(sp)
    2018:	2219                	jal	211e <__sinit>
    201a:	45b2                	lw	a1,12(sp)
    201c:	00001797          	auipc	a5,0x1
    2020:	04878793          	addi	a5,a5,72 # 3064 <__sf_fake_stdin>
    2024:	00f59b63          	bne	a1,a5,203a <_fflush_r+0x36>
    2028:	404c                	lw	a1,4(s0)
    202a:	00c59783          	lh	a5,12(a1)
    202e:	c795                	beqz	a5,205a <_fflush_r+0x56>
    2030:	8522                	mv	a0,s0
    2032:	4462                	lw	s0,24(sp)
    2034:	40f2                	lw	ra,28(sp)
    2036:	6105                	addi	sp,sp,32
    2038:	bd71                	j	1ed4 <__sflush_r>
    203a:	00001797          	auipc	a5,0x1
    203e:	04a78793          	addi	a5,a5,74 # 3084 <__sf_fake_stdout>
    2042:	00f59463          	bne	a1,a5,204a <_fflush_r+0x46>
    2046:	440c                	lw	a1,8(s0)
    2048:	b7cd                	j	202a <_fflush_r+0x26>
    204a:	00001797          	auipc	a5,0x1
    204e:	ffa78793          	addi	a5,a5,-6 # 3044 <__sf_fake_stderr>
    2052:	fcf59ce3          	bne	a1,a5,202a <_fflush_r+0x26>
    2056:	444c                	lw	a1,12(s0)
    2058:	bfc9                	j	202a <_fflush_r+0x26>
    205a:	40f2                	lw	ra,28(sp)
    205c:	4462                	lw	s0,24(sp)
    205e:	4501                	li	a0,0
    2060:	6105                	addi	sp,sp,32
    2062:	8082                	ret
    2064:	4501                	li	a0,0
    2066:	8082                	ret

00002068 <std>:
    2068:	1141                	addi	sp,sp,-16
    206a:	c422                	sw	s0,8(sp)
    206c:	c606                	sw	ra,12(sp)
    206e:	842a                	mv	s0,a0
    2070:	a54e                	sh	a1,12(a0)
    2072:	a572                	sh	a2,14(a0)
    2074:	00052023          	sw	zero,0(a0)
    2078:	00052223          	sw	zero,4(a0)
    207c:	00052423          	sw	zero,8(a0)
    2080:	06052223          	sw	zero,100(a0)
    2084:	00052823          	sw	zero,16(a0)
    2088:	00052a23          	sw	zero,20(a0)
    208c:	00052c23          	sw	zero,24(a0)
    2090:	4621                	li	a2,8
    2092:	4581                	li	a1,0
    2094:	05c50513          	addi	a0,a0,92
    2098:	988fe0ef          	jal	ra,220 <memset>
    209c:	00001797          	auipc	a5,0x1
    20a0:	b1678793          	addi	a5,a5,-1258 # 2bb2 <__sread>
    20a4:	d05c                	sw	a5,36(s0)
    20a6:	00001797          	auipc	a5,0x1
    20aa:	b3878793          	addi	a5,a5,-1224 # 2bde <__swrite>
    20ae:	d41c                	sw	a5,40(s0)
    20b0:	00001797          	auipc	a5,0x1
    20b4:	b7678793          	addi	a5,a5,-1162 # 2c26 <__sseek>
    20b8:	d45c                	sw	a5,44(s0)
    20ba:	00001797          	auipc	a5,0x1
    20be:	b9c78793          	addi	a5,a5,-1124 # 2c56 <__sclose>
    20c2:	d000                	sw	s0,32(s0)
    20c4:	d81c                	sw	a5,48(s0)
    20c6:	40b2                	lw	ra,12(sp)
    20c8:	4422                	lw	s0,8(sp)
    20ca:	0141                	addi	sp,sp,16
    20cc:	8082                	ret

000020ce <_cleanup_r>:
    20ce:	00000597          	auipc	a1,0x0
    20d2:	f3658593          	addi	a1,a1,-202 # 2004 <_fflush_r>
    20d6:	a2a9                	j	2220 <_fwalk_reent>

000020d8 <__sfmoreglue>:
    20d8:	1141                	addi	sp,sp,-16
    20da:	c226                	sw	s1,4(sp)
    20dc:	06800613          	li	a2,104
    20e0:	fff58493          	addi	s1,a1,-1
    20e4:	02c484b3          	mul	s1,s1,a2
    20e8:	c04a                	sw	s2,0(sp)
    20ea:	892e                	mv	s2,a1
    20ec:	c422                	sw	s0,8(sp)
    20ee:	c606                	sw	ra,12(sp)
    20f0:	07448593          	addi	a1,s1,116
    20f4:	261d                	jal	241a <_malloc_r>
    20f6:	842a                	mv	s0,a0
    20f8:	cd01                	beqz	a0,2110 <__sfmoreglue+0x38>
    20fa:	00052023          	sw	zero,0(a0)
    20fe:	01252223          	sw	s2,4(a0)
    2102:	0531                	addi	a0,a0,12
    2104:	c408                	sw	a0,8(s0)
    2106:	06848613          	addi	a2,s1,104
    210a:	4581                	li	a1,0
    210c:	914fe0ef          	jal	ra,220 <memset>
    2110:	8522                	mv	a0,s0
    2112:	40b2                	lw	ra,12(sp)
    2114:	4422                	lw	s0,8(sp)
    2116:	4492                	lw	s1,4(sp)
    2118:	4902                	lw	s2,0(sp)
    211a:	0141                	addi	sp,sp,16
    211c:	8082                	ret

0000211e <__sinit>:
    211e:	4d1c                	lw	a5,24(a0)
    2120:	e3ad                	bnez	a5,2182 <__sinit+0x64>
    2122:	1141                	addi	sp,sp,-16
    2124:	c606                	sw	ra,12(sp)
    2126:	c422                	sw	s0,8(sp)
    2128:	00000797          	auipc	a5,0x0
    212c:	fa678793          	addi	a5,a5,-90 # 20ce <_cleanup_r>
    2130:	d51c                	sw	a5,40(a0)
    2132:	81018793          	addi	a5,gp,-2032 # 20000090 <_global_impure_ptr>
    2136:	439c                	lw	a5,0(a5)
    2138:	04052423          	sw	zero,72(a0)
    213c:	04052623          	sw	zero,76(a0)
    2140:	04052823          	sw	zero,80(a0)
    2144:	00f51463          	bne	a0,a5,214c <__sinit+0x2e>
    2148:	4785                	li	a5,1
    214a:	cd1c                	sw	a5,24(a0)
    214c:	842a                	mv	s0,a0
    214e:	281d                	jal	2184 <__sfp>
    2150:	c048                	sw	a0,4(s0)
    2152:	8522                	mv	a0,s0
    2154:	2805                	jal	2184 <__sfp>
    2156:	c408                	sw	a0,8(s0)
    2158:	8522                	mv	a0,s0
    215a:	202d                	jal	2184 <__sfp>
    215c:	c448                	sw	a0,12(s0)
    215e:	4048                	lw	a0,4(s0)
    2160:	4601                	li	a2,0
    2162:	4591                	li	a1,4
    2164:	3711                	jal	2068 <std>
    2166:	4408                	lw	a0,8(s0)
    2168:	4605                	li	a2,1
    216a:	45a5                	li	a1,9
    216c:	3df5                	jal	2068 <std>
    216e:	4448                	lw	a0,12(s0)
    2170:	4609                	li	a2,2
    2172:	45c9                	li	a1,18
    2174:	3dd5                	jal	2068 <std>
    2176:	4785                	li	a5,1
    2178:	cc1c                	sw	a5,24(s0)
    217a:	40b2                	lw	ra,12(sp)
    217c:	4422                	lw	s0,8(sp)
    217e:	0141                	addi	sp,sp,16
    2180:	8082                	ret
    2182:	8082                	ret

00002184 <__sfp>:
    2184:	1141                	addi	sp,sp,-16
    2186:	81018793          	addi	a5,gp,-2032 # 20000090 <_global_impure_ptr>
    218a:	c226                	sw	s1,4(sp)
    218c:	4384                	lw	s1,0(a5)
    218e:	c04a                	sw	s2,0(sp)
    2190:	c606                	sw	ra,12(sp)
    2192:	4c9c                	lw	a5,24(s1)
    2194:	c422                	sw	s0,8(sp)
    2196:	892a                	mv	s2,a0
    2198:	e399                	bnez	a5,219e <__sfp+0x1a>
    219a:	8526                	mv	a0,s1
    219c:	3749                	jal	211e <__sinit>
    219e:	04848493          	addi	s1,s1,72
    21a2:	4480                	lw	s0,8(s1)
    21a4:	40dc                	lw	a5,4(s1)
    21a6:	17fd                	addi	a5,a5,-1
    21a8:	0007d663          	bgez	a5,21b4 <__sfp+0x30>
    21ac:	409c                	lw	a5,0(s1)
    21ae:	cfb9                	beqz	a5,220c <__sfp+0x88>
    21b0:	4084                	lw	s1,0(s1)
    21b2:	bfc5                	j	21a2 <__sfp+0x1e>
    21b4:	00c41703          	lh	a4,12(s0)
    21b8:	e739                	bnez	a4,2206 <__sfp+0x82>
    21ba:	77c1                	lui	a5,0xffff0
    21bc:	0785                	addi	a5,a5,1
    21be:	06042223          	sw	zero,100(s0)
    21c2:	00042023          	sw	zero,0(s0)
    21c6:	00042223          	sw	zero,4(s0)
    21ca:	00042423          	sw	zero,8(s0)
    21ce:	c45c                	sw	a5,12(s0)
    21d0:	00042823          	sw	zero,16(s0)
    21d4:	00042a23          	sw	zero,20(s0)
    21d8:	00042c23          	sw	zero,24(s0)
    21dc:	4621                	li	a2,8
    21de:	4581                	li	a1,0
    21e0:	05c40513          	addi	a0,s0,92
    21e4:	83cfe0ef          	jal	ra,220 <memset>
    21e8:	02042a23          	sw	zero,52(s0)
    21ec:	02042c23          	sw	zero,56(s0)
    21f0:	04042423          	sw	zero,72(s0)
    21f4:	04042623          	sw	zero,76(s0)
    21f8:	8522                	mv	a0,s0
    21fa:	40b2                	lw	ra,12(sp)
    21fc:	4422                	lw	s0,8(sp)
    21fe:	4492                	lw	s1,4(sp)
    2200:	4902                	lw	s2,0(sp)
    2202:	0141                	addi	sp,sp,16
    2204:	8082                	ret
    2206:	06840413          	addi	s0,s0,104
    220a:	bf71                	j	21a6 <__sfp+0x22>
    220c:	4591                	li	a1,4
    220e:	854a                	mv	a0,s2
    2210:	35e1                	jal	20d8 <__sfmoreglue>
    2212:	c088                	sw	a0,0(s1)
    2214:	fd51                	bnez	a0,21b0 <__sfp+0x2c>
    2216:	47b1                	li	a5,12
    2218:	00f92023          	sw	a5,0(s2)
    221c:	4401                	li	s0,0
    221e:	bfe9                	j	21f8 <__sfp+0x74>

00002220 <_fwalk_reent>:
    2220:	7179                	addi	sp,sp,-48
    2222:	d422                	sw	s0,40(sp)
    2224:	d04a                	sw	s2,32(sp)
    2226:	cc52                	sw	s4,24(sp)
    2228:	ca56                	sw	s5,20(sp)
    222a:	c85a                	sw	s6,16(sp)
    222c:	c65e                	sw	s7,12(sp)
    222e:	d606                	sw	ra,44(sp)
    2230:	d226                	sw	s1,36(sp)
    2232:	ce4e                	sw	s3,28(sp)
    2234:	8a2a                	mv	s4,a0
    2236:	8aae                	mv	s5,a1
    2238:	04850413          	addi	s0,a0,72
    223c:	4901                	li	s2,0
    223e:	4b05                	li	s6,1
    2240:	5bfd                	li	s7,-1
    2242:	ec09                	bnez	s0,225c <_fwalk_reent+0x3c>
    2244:	50b2                	lw	ra,44(sp)
    2246:	5422                	lw	s0,40(sp)
    2248:	854a                	mv	a0,s2
    224a:	5492                	lw	s1,36(sp)
    224c:	5902                	lw	s2,32(sp)
    224e:	49f2                	lw	s3,28(sp)
    2250:	4a62                	lw	s4,24(sp)
    2252:	4ad2                	lw	s5,20(sp)
    2254:	4b42                	lw	s6,16(sp)
    2256:	4bb2                	lw	s7,12(sp)
    2258:	6145                	addi	sp,sp,48
    225a:	8082                	ret
    225c:	4404                	lw	s1,8(s0)
    225e:	00442983          	lw	s3,4(s0)
    2262:	19fd                	addi	s3,s3,-1
    2264:	0009d463          	bgez	s3,226c <_fwalk_reent+0x4c>
    2268:	4000                	lw	s0,0(s0)
    226a:	bfe1                	j	2242 <_fwalk_reent+0x22>
    226c:	24de                	lhu	a5,12(s1)
    226e:	00fb7b63          	bgeu	s6,a5,2284 <_fwalk_reent+0x64>
    2272:	00e49783          	lh	a5,14(s1)
    2276:	01778763          	beq	a5,s7,2284 <_fwalk_reent+0x64>
    227a:	85a6                	mv	a1,s1
    227c:	8552                	mv	a0,s4
    227e:	9a82                	jalr	s5
    2280:	00a96933          	or	s2,s2,a0
    2284:	06848493          	addi	s1,s1,104
    2288:	bfe9                	j	2262 <_fwalk_reent+0x42>

0000228a <__swhatbuf_r>:
    228a:	7119                	addi	sp,sp,-128
    228c:	daa6                	sw	s1,116(sp)
    228e:	84ae                	mv	s1,a1
    2290:	00e59583          	lh	a1,14(a1)
    2294:	dca2                	sw	s0,120(sp)
    2296:	de86                	sw	ra,124(sp)
    2298:	8432                	mv	s0,a2
    229a:	0005db63          	bgez	a1,22b0 <__swhatbuf_r+0x26>
    229e:	24de                	lhu	a5,12(s1)
    22a0:	0006a023          	sw	zero,0(a3) # fc000000 <_eusrstack+0xdbff8000>
    22a4:	0807f793          	andi	a5,a5,128
    22a8:	e785                	bnez	a5,22d0 <__swhatbuf_r+0x46>
    22aa:	40000793          	li	a5,1024
    22ae:	a01d                	j	22d4 <__swhatbuf_r+0x4a>
    22b0:	0830                	addi	a2,sp,24
    22b2:	c636                	sw	a3,12(sp)
    22b4:	1ff000ef          	jal	ra,2cb2 <_fstat_r>
    22b8:	46b2                	lw	a3,12(sp)
    22ba:	fe0542e3          	bltz	a0,229e <__swhatbuf_r+0x14>
    22be:	4772                	lw	a4,28(sp)
    22c0:	67bd                	lui	a5,0xf
    22c2:	8ff9                	and	a5,a5,a4
    22c4:	7779                	lui	a4,0xffffe
    22c6:	97ba                	add	a5,a5,a4
    22c8:	0017b793          	seqz	a5,a5
    22cc:	c29c                	sw	a5,0(a3)
    22ce:	bff1                	j	22aa <__swhatbuf_r+0x20>
    22d0:	04000793          	li	a5,64
    22d4:	c01c                	sw	a5,0(s0)
    22d6:	50f6                	lw	ra,124(sp)
    22d8:	5466                	lw	s0,120(sp)
    22da:	54d6                	lw	s1,116(sp)
    22dc:	4501                	li	a0,0
    22de:	6109                	addi	sp,sp,128
    22e0:	8082                	ret

000022e2 <__smakebuf_r>:
    22e2:	25de                	lhu	a5,12(a1)
    22e4:	1101                	addi	sp,sp,-32
    22e6:	cc22                	sw	s0,24(sp)
    22e8:	ce06                	sw	ra,28(sp)
    22ea:	ca26                	sw	s1,20(sp)
    22ec:	c84a                	sw	s2,16(sp)
    22ee:	8b89                	andi	a5,a5,2
    22f0:	842e                	mv	s0,a1
    22f2:	cf89                	beqz	a5,230c <__smakebuf_r+0x2a>
    22f4:	04740793          	addi	a5,s0,71
    22f8:	c01c                	sw	a5,0(s0)
    22fa:	c81c                	sw	a5,16(s0)
    22fc:	4785                	li	a5,1
    22fe:	c85c                	sw	a5,20(s0)
    2300:	40f2                	lw	ra,28(sp)
    2302:	4462                	lw	s0,24(sp)
    2304:	44d2                	lw	s1,20(sp)
    2306:	4942                	lw	s2,16(sp)
    2308:	6105                	addi	sp,sp,32
    230a:	8082                	ret
    230c:	0074                	addi	a3,sp,12
    230e:	0030                	addi	a2,sp,8
    2310:	84aa                	mv	s1,a0
    2312:	3fa5                	jal	228a <__swhatbuf_r>
    2314:	45a2                	lw	a1,8(sp)
    2316:	892a                	mv	s2,a0
    2318:	8526                	mv	a0,s1
    231a:	2201                	jal	241a <_malloc_r>
    231c:	e919                	bnez	a0,2332 <__smakebuf_r+0x50>
    231e:	00c41783          	lh	a5,12(s0)
    2322:	2007f713          	andi	a4,a5,512
    2326:	ff69                	bnez	a4,2300 <__smakebuf_r+0x1e>
    2328:	9bf1                	andi	a5,a5,-4
    232a:	0027e793          	ori	a5,a5,2
    232e:	a45e                	sh	a5,12(s0)
    2330:	b7d1                	j	22f4 <__smakebuf_r+0x12>
    2332:	00000797          	auipc	a5,0x0
    2336:	d9c78793          	addi	a5,a5,-612 # 20ce <_cleanup_r>
    233a:	d49c                	sw	a5,40(s1)
    233c:	245e                	lhu	a5,12(s0)
    233e:	c008                	sw	a0,0(s0)
    2340:	c808                	sw	a0,16(s0)
    2342:	0807e793          	ori	a5,a5,128
    2346:	a45e                	sh	a5,12(s0)
    2348:	47a2                	lw	a5,8(sp)
    234a:	c85c                	sw	a5,20(s0)
    234c:	47b2                	lw	a5,12(sp)
    234e:	cf81                	beqz	a5,2366 <__smakebuf_r+0x84>
    2350:	00e41583          	lh	a1,14(s0)
    2354:	8526                	mv	a0,s1
    2356:	187000ef          	jal	ra,2cdc <_isatty_r>
    235a:	c511                	beqz	a0,2366 <__smakebuf_r+0x84>
    235c:	245e                	lhu	a5,12(s0)
    235e:	9bf1                	andi	a5,a5,-4
    2360:	0017e793          	ori	a5,a5,1
    2364:	a45e                	sh	a5,12(s0)
    2366:	245e                	lhu	a5,12(s0)
    2368:	00f96933          	or	s2,s2,a5
    236c:	01241623          	sh	s2,12(s0)
    2370:	bf41                	j	2300 <__smakebuf_r+0x1e>

00002372 <_free_r>:
    2372:	c1dd                	beqz	a1,2418 <_free_r+0xa6>
    2374:	ffc5a783          	lw	a5,-4(a1)
    2378:	1141                	addi	sp,sp,-16
    237a:	c422                	sw	s0,8(sp)
    237c:	c606                	sw	ra,12(sp)
    237e:	c226                	sw	s1,4(sp)
    2380:	ffc58413          	addi	s0,a1,-4
    2384:	0007d363          	bgez	a5,238a <_free_r+0x18>
    2388:	943e                	add	s0,s0,a5
    238a:	84aa                	mv	s1,a0
    238c:	1bd000ef          	jal	ra,2d48 <__malloc_lock>
    2390:	82818793          	addi	a5,gp,-2008 # 200000a8 <__malloc_free_list>
    2394:	439c                	lw	a5,0(a5)
    2396:	ef81                	bnez	a5,23ae <_free_r+0x3c>
    2398:	00042223          	sw	zero,4(s0)
    239c:	8281a423          	sw	s0,-2008(gp) # 200000a8 <__malloc_free_list>
    23a0:	4422                	lw	s0,8(sp)
    23a2:	40b2                	lw	ra,12(sp)
    23a4:	8526                	mv	a0,s1
    23a6:	4492                	lw	s1,4(sp)
    23a8:	0141                	addi	sp,sp,16
    23aa:	1a10006f          	j	2d4a <__malloc_unlock>
    23ae:	00f47e63          	bgeu	s0,a5,23ca <_free_r+0x58>
    23b2:	4014                	lw	a3,0(s0)
    23b4:	00d40733          	add	a4,s0,a3
    23b8:	00e79663          	bne	a5,a4,23c4 <_free_r+0x52>
    23bc:	4398                	lw	a4,0(a5)
    23be:	43dc                	lw	a5,4(a5)
    23c0:	9736                	add	a4,a4,a3
    23c2:	c018                	sw	a4,0(s0)
    23c4:	c05c                	sw	a5,4(s0)
    23c6:	bfd9                	j	239c <_free_r+0x2a>
    23c8:	87ba                	mv	a5,a4
    23ca:	43d8                	lw	a4,4(a5)
    23cc:	c319                	beqz	a4,23d2 <_free_r+0x60>
    23ce:	fee47de3          	bgeu	s0,a4,23c8 <_free_r+0x56>
    23d2:	4394                	lw	a3,0(a5)
    23d4:	00d78633          	add	a2,a5,a3
    23d8:	00861f63          	bne	a2,s0,23f6 <_free_r+0x84>
    23dc:	4010                	lw	a2,0(s0)
    23de:	96b2                	add	a3,a3,a2
    23e0:	c394                	sw	a3,0(a5)
    23e2:	00d78633          	add	a2,a5,a3
    23e6:	fac71de3          	bne	a4,a2,23a0 <_free_r+0x2e>
    23ea:	4310                	lw	a2,0(a4)
    23ec:	4358                	lw	a4,4(a4)
    23ee:	96b2                	add	a3,a3,a2
    23f0:	c394                	sw	a3,0(a5)
    23f2:	c3d8                	sw	a4,4(a5)
    23f4:	b775                	j	23a0 <_free_r+0x2e>
    23f6:	00c47563          	bgeu	s0,a2,2400 <_free_r+0x8e>
    23fa:	47b1                	li	a5,12
    23fc:	c09c                	sw	a5,0(s1)
    23fe:	b74d                	j	23a0 <_free_r+0x2e>
    2400:	4010                	lw	a2,0(s0)
    2402:	00c406b3          	add	a3,s0,a2
    2406:	00d71663          	bne	a4,a3,2412 <_free_r+0xa0>
    240a:	4314                	lw	a3,0(a4)
    240c:	4358                	lw	a4,4(a4)
    240e:	96b2                	add	a3,a3,a2
    2410:	c014                	sw	a3,0(s0)
    2412:	c058                	sw	a4,4(s0)
    2414:	c3c0                	sw	s0,4(a5)
    2416:	b769                	j	23a0 <_free_r+0x2e>
    2418:	8082                	ret

0000241a <_malloc_r>:
    241a:	1101                	addi	sp,sp,-32
    241c:	ca26                	sw	s1,20(sp)
    241e:	00358493          	addi	s1,a1,3
    2422:	98f1                	andi	s1,s1,-4
    2424:	ce06                	sw	ra,28(sp)
    2426:	cc22                	sw	s0,24(sp)
    2428:	c84a                	sw	s2,16(sp)
    242a:	c64e                	sw	s3,12(sp)
    242c:	04a1                	addi	s1,s1,8
    242e:	47b1                	li	a5,12
    2430:	04f4f363          	bgeu	s1,a5,2476 <_malloc_r+0x5c>
    2434:	44b1                	li	s1,12
    2436:	04b4e263          	bltu	s1,a1,247a <_malloc_r+0x60>
    243a:	892a                	mv	s2,a0
    243c:	10d000ef          	jal	ra,2d48 <__malloc_lock>
    2440:	82818793          	addi	a5,gp,-2008 # 200000a8 <__malloc_free_list>
    2444:	4398                	lw	a4,0(a5)
    2446:	843a                	mv	s0,a4
    2448:	e039                	bnez	s0,248e <_malloc_r+0x74>
    244a:	82c18793          	addi	a5,gp,-2004 # 200000ac <__malloc_sbrk_start>
    244e:	439c                	lw	a5,0(a5)
    2450:	e791                	bnez	a5,245c <_malloc_r+0x42>
    2452:	4581                	li	a1,0
    2454:	854a                	mv	a0,s2
    2456:	2f0d                	jal	2b88 <_sbrk_r>
    2458:	82a1a623          	sw	a0,-2004(gp) # 200000ac <__malloc_sbrk_start>
    245c:	85a6                	mv	a1,s1
    245e:	854a                	mv	a0,s2
    2460:	2725                	jal	2b88 <_sbrk_r>
    2462:	59fd                	li	s3,-1
    2464:	07351963          	bne	a0,s3,24d6 <_malloc_r+0xbc>
    2468:	47b1                	li	a5,12
    246a:	00f92023          	sw	a5,0(s2)
    246e:	854a                	mv	a0,s2
    2470:	0db000ef          	jal	ra,2d4a <__malloc_unlock>
    2474:	a029                	j	247e <_malloc_r+0x64>
    2476:	fc04d0e3          	bgez	s1,2436 <_malloc_r+0x1c>
    247a:	47b1                	li	a5,12
    247c:	c11c                	sw	a5,0(a0)
    247e:	4501                	li	a0,0
    2480:	40f2                	lw	ra,28(sp)
    2482:	4462                	lw	s0,24(sp)
    2484:	44d2                	lw	s1,20(sp)
    2486:	4942                	lw	s2,16(sp)
    2488:	49b2                	lw	s3,12(sp)
    248a:	6105                	addi	sp,sp,32
    248c:	8082                	ret
    248e:	401c                	lw	a5,0(s0)
    2490:	8f85                	sub	a5,a5,s1
    2492:	0207cf63          	bltz	a5,24d0 <_malloc_r+0xb6>
    2496:	46ad                	li	a3,11
    2498:	00f6f663          	bgeu	a3,a5,24a4 <_malloc_r+0x8a>
    249c:	c01c                	sw	a5,0(s0)
    249e:	943e                	add	s0,s0,a5
    24a0:	c004                	sw	s1,0(s0)
    24a2:	a031                	j	24ae <_malloc_r+0x94>
    24a4:	405c                	lw	a5,4(s0)
    24a6:	02871363          	bne	a4,s0,24cc <_malloc_r+0xb2>
    24aa:	82f1a423          	sw	a5,-2008(gp) # 200000a8 <__malloc_free_list>
    24ae:	854a                	mv	a0,s2
    24b0:	09b000ef          	jal	ra,2d4a <__malloc_unlock>
    24b4:	00b40513          	addi	a0,s0,11
    24b8:	00440793          	addi	a5,s0,4
    24bc:	9961                	andi	a0,a0,-8
    24be:	40f50733          	sub	a4,a0,a5
    24c2:	df5d                	beqz	a4,2480 <_malloc_r+0x66>
    24c4:	943a                	add	s0,s0,a4
    24c6:	8f89                	sub	a5,a5,a0
    24c8:	c01c                	sw	a5,0(s0)
    24ca:	bf5d                	j	2480 <_malloc_r+0x66>
    24cc:	c35c                	sw	a5,4(a4)
    24ce:	b7c5                	j	24ae <_malloc_r+0x94>
    24d0:	8722                	mv	a4,s0
    24d2:	4040                	lw	s0,4(s0)
    24d4:	bf95                	j	2448 <_malloc_r+0x2e>
    24d6:	00350413          	addi	s0,a0,3
    24da:	9871                	andi	s0,s0,-4
    24dc:	fc8502e3          	beq	a0,s0,24a0 <_malloc_r+0x86>
    24e0:	40a405b3          	sub	a1,s0,a0
    24e4:	854a                	mv	a0,s2
    24e6:	254d                	jal	2b88 <_sbrk_r>
    24e8:	fb351ce3          	bne	a0,s3,24a0 <_malloc_r+0x86>
    24ec:	bfb5                	j	2468 <_malloc_r+0x4e>

000024ee <__sfputc_r>:
    24ee:	461c                	lw	a5,8(a2)
    24f0:	17fd                	addi	a5,a5,-1
    24f2:	c61c                	sw	a5,8(a2)
    24f4:	0007da63          	bgez	a5,2508 <__sfputc_r+0x1a>
    24f8:	4e18                	lw	a4,24(a2)
    24fa:	00e7c563          	blt	a5,a4,2504 <__sfputc_r+0x16>
    24fe:	47a9                	li	a5,10
    2500:	00f59463          	bne	a1,a5,2508 <__sfputc_r+0x1a>
    2504:	819ff06f          	j	1d1c <__swbuf_r>
    2508:	421c                	lw	a5,0(a2)
    250a:	852e                	mv	a0,a1
    250c:	00178713          	addi	a4,a5,1
    2510:	c218                	sw	a4,0(a2)
    2512:	a38c                	sb	a1,0(a5)
    2514:	8082                	ret

00002516 <__sfputs_r>:
    2516:	1101                	addi	sp,sp,-32
    2518:	cc22                	sw	s0,24(sp)
    251a:	ca26                	sw	s1,20(sp)
    251c:	c84a                	sw	s2,16(sp)
    251e:	c64e                	sw	s3,12(sp)
    2520:	c452                	sw	s4,8(sp)
    2522:	ce06                	sw	ra,28(sp)
    2524:	892a                	mv	s2,a0
    2526:	89ae                	mv	s3,a1
    2528:	8432                	mv	s0,a2
    252a:	00d604b3          	add	s1,a2,a3
    252e:	5a7d                	li	s4,-1
    2530:	00941463          	bne	s0,s1,2538 <__sfputs_r+0x22>
    2534:	4501                	li	a0,0
    2536:	a801                	j	2546 <__sfputs_r+0x30>
    2538:	200c                	lbu	a1,0(s0)
    253a:	864e                	mv	a2,s3
    253c:	854a                	mv	a0,s2
    253e:	3f45                	jal	24ee <__sfputc_r>
    2540:	0405                	addi	s0,s0,1
    2542:	ff4517e3          	bne	a0,s4,2530 <__sfputs_r+0x1a>
    2546:	40f2                	lw	ra,28(sp)
    2548:	4462                	lw	s0,24(sp)
    254a:	44d2                	lw	s1,20(sp)
    254c:	4942                	lw	s2,16(sp)
    254e:	49b2                	lw	s3,12(sp)
    2550:	4a22                	lw	s4,8(sp)
    2552:	6105                	addi	sp,sp,32
    2554:	8082                	ret

00002556 <_vfiprintf_r>:
    2556:	7135                	addi	sp,sp,-160
    2558:	cd22                	sw	s0,152(sp)
    255a:	cb26                	sw	s1,148(sp)
    255c:	c94a                	sw	s2,144(sp)
    255e:	c74e                	sw	s3,140(sp)
    2560:	cf06                	sw	ra,156(sp)
    2562:	c552                	sw	s4,136(sp)
    2564:	c356                	sw	s5,132(sp)
    2566:	c15a                	sw	s6,128(sp)
    2568:	dede                	sw	s7,124(sp)
    256a:	dce2                	sw	s8,120(sp)
    256c:	dae6                	sw	s9,116(sp)
    256e:	89aa                	mv	s3,a0
    2570:	84ae                	mv	s1,a1
    2572:	8932                	mv	s2,a2
    2574:	8436                	mv	s0,a3
    2576:	c509                	beqz	a0,2580 <_vfiprintf_r+0x2a>
    2578:	4d1c                	lw	a5,24(a0)
    257a:	e399                	bnez	a5,2580 <_vfiprintf_r+0x2a>
    257c:	ba3ff0ef          	jal	ra,211e <__sinit>
    2580:	00001797          	auipc	a5,0x1
    2584:	ae478793          	addi	a5,a5,-1308 # 3064 <__sf_fake_stdin>
    2588:	0cf49763          	bne	s1,a5,2656 <_vfiprintf_r+0x100>
    258c:	0049a483          	lw	s1,4(s3)
    2590:	24de                	lhu	a5,12(s1)
    2592:	8ba1                	andi	a5,a5,8
    2594:	c3fd                	beqz	a5,267a <_vfiprintf_r+0x124>
    2596:	489c                	lw	a5,16(s1)
    2598:	c3ed                	beqz	a5,267a <_vfiprintf_r+0x124>
    259a:	02000793          	li	a5,32
    259e:	02f104a3          	sb	a5,41(sp)
    25a2:	03000793          	li	a5,48
    25a6:	d202                	sw	zero,36(sp)
    25a8:	02f10523          	sb	a5,42(sp)
    25ac:	c622                	sw	s0,12(sp)
    25ae:	02500b93          	li	s7,37
    25b2:	00001a97          	auipc	s5,0x1
    25b6:	af2a8a93          	addi	s5,s5,-1294 # 30a4 <__sf_fake_stdout+0x20>
    25ba:	4c05                	li	s8,1
    25bc:	4b29                	li	s6,10
    25be:	844a                	mv	s0,s2
    25c0:	201c                	lbu	a5,0(s0)
    25c2:	c399                	beqz	a5,25c8 <_vfiprintf_r+0x72>
    25c4:	0d779e63          	bne	a5,s7,26a0 <_vfiprintf_r+0x14a>
    25c8:	41240cb3          	sub	s9,s0,s2
    25cc:	000c8d63          	beqz	s9,25e6 <_vfiprintf_r+0x90>
    25d0:	86e6                	mv	a3,s9
    25d2:	864a                	mv	a2,s2
    25d4:	85a6                	mv	a1,s1
    25d6:	854e                	mv	a0,s3
    25d8:	3f3d                	jal	2516 <__sfputs_r>
    25da:	57fd                	li	a5,-1
    25dc:	1cf50f63          	beq	a0,a5,27ba <_vfiprintf_r+0x264>
    25e0:	5692                	lw	a3,36(sp)
    25e2:	96e6                	add	a3,a3,s9
    25e4:	d236                	sw	a3,36(sp)
    25e6:	201c                	lbu	a5,0(s0)
    25e8:	1c078963          	beqz	a5,27ba <_vfiprintf_r+0x264>
    25ec:	57fd                	li	a5,-1
    25ee:	00140913          	addi	s2,s0,1
    25f2:	c802                	sw	zero,16(sp)
    25f4:	ce02                	sw	zero,28(sp)
    25f6:	ca3e                	sw	a5,20(sp)
    25f8:	cc02                	sw	zero,24(sp)
    25fa:	040109a3          	sb	zero,83(sp)
    25fe:	d482                	sw	zero,104(sp)
    2600:	00094583          	lbu	a1,0(s2)
    2604:	4615                	li	a2,5
    2606:	8556                	mv	a0,s5
    2608:	2725                	jal	2d30 <memchr>
    260a:	00190413          	addi	s0,s2,1
    260e:	47c2                	lw	a5,16(sp)
    2610:	e951                	bnez	a0,26a4 <_vfiprintf_r+0x14e>
    2612:	0107f713          	andi	a4,a5,16
    2616:	c709                	beqz	a4,2620 <_vfiprintf_r+0xca>
    2618:	02000713          	li	a4,32
    261c:	04e109a3          	sb	a4,83(sp)
    2620:	0087f713          	andi	a4,a5,8
    2624:	c709                	beqz	a4,262e <_vfiprintf_r+0xd8>
    2626:	02b00713          	li	a4,43
    262a:	04e109a3          	sb	a4,83(sp)
    262e:	00094683          	lbu	a3,0(s2)
    2632:	02a00713          	li	a4,42
    2636:	06e68f63          	beq	a3,a4,26b4 <_vfiprintf_r+0x15e>
    263a:	47f2                	lw	a5,28(sp)
    263c:	844a                	mv	s0,s2
    263e:	4681                	li	a3,0
    2640:	4625                	li	a2,9
    2642:	2018                	lbu	a4,0(s0)
    2644:	00140593          	addi	a1,s0,1
    2648:	fd070713          	addi	a4,a4,-48 # ffffdfd0 <_eusrstack+0xdfff5fd0>
    264c:	0ae67763          	bgeu	a2,a4,26fa <_vfiprintf_r+0x1a4>
    2650:	cab5                	beqz	a3,26c4 <_vfiprintf_r+0x16e>
    2652:	ce3e                	sw	a5,28(sp)
    2654:	a885                	j	26c4 <_vfiprintf_r+0x16e>
    2656:	00001797          	auipc	a5,0x1
    265a:	a2e78793          	addi	a5,a5,-1490 # 3084 <__sf_fake_stdout>
    265e:	00f49563          	bne	s1,a5,2668 <_vfiprintf_r+0x112>
    2662:	0089a483          	lw	s1,8(s3)
    2666:	b72d                	j	2590 <_vfiprintf_r+0x3a>
    2668:	00001797          	auipc	a5,0x1
    266c:	9dc78793          	addi	a5,a5,-1572 # 3044 <__sf_fake_stderr>
    2670:	f2f490e3          	bne	s1,a5,2590 <_vfiprintf_r+0x3a>
    2674:	00c9a483          	lw	s1,12(s3)
    2678:	bf21                	j	2590 <_vfiprintf_r+0x3a>
    267a:	85a6                	mv	a1,s1
    267c:	854e                	mv	a0,s3
    267e:	f5aff0ef          	jal	ra,1dd8 <__swsetup_r>
    2682:	dd01                	beqz	a0,259a <_vfiprintf_r+0x44>
    2684:	557d                	li	a0,-1
    2686:	40fa                	lw	ra,156(sp)
    2688:	446a                	lw	s0,152(sp)
    268a:	44da                	lw	s1,148(sp)
    268c:	494a                	lw	s2,144(sp)
    268e:	49ba                	lw	s3,140(sp)
    2690:	4a2a                	lw	s4,136(sp)
    2692:	4a9a                	lw	s5,132(sp)
    2694:	4b0a                	lw	s6,128(sp)
    2696:	5bf6                	lw	s7,124(sp)
    2698:	5c66                	lw	s8,120(sp)
    269a:	5cd6                	lw	s9,116(sp)
    269c:	610d                	addi	sp,sp,160
    269e:	8082                	ret
    26a0:	0405                	addi	s0,s0,1
    26a2:	bf39                	j	25c0 <_vfiprintf_r+0x6a>
    26a4:	41550533          	sub	a0,a0,s5
    26a8:	00ac1533          	sll	a0,s8,a0
    26ac:	8fc9                	or	a5,a5,a0
    26ae:	c83e                	sw	a5,16(sp)
    26b0:	8922                	mv	s2,s0
    26b2:	b7b9                	j	2600 <_vfiprintf_r+0xaa>
    26b4:	4732                	lw	a4,12(sp)
    26b6:	00470693          	addi	a3,a4,4
    26ba:	4318                	lw	a4,0(a4)
    26bc:	c636                	sw	a3,12(sp)
    26be:	02074763          	bltz	a4,26ec <_vfiprintf_r+0x196>
    26c2:	ce3a                	sw	a4,28(sp)
    26c4:	2018                	lbu	a4,0(s0)
    26c6:	02e00793          	li	a5,46
    26ca:	04f71d63          	bne	a4,a5,2724 <_vfiprintf_r+0x1ce>
    26ce:	3018                	lbu	a4,1(s0)
    26d0:	02a00793          	li	a5,42
    26d4:	02f71b63          	bne	a4,a5,270a <_vfiprintf_r+0x1b4>
    26d8:	47b2                	lw	a5,12(sp)
    26da:	0409                	addi	s0,s0,2
    26dc:	00478713          	addi	a4,a5,4
    26e0:	439c                	lw	a5,0(a5)
    26e2:	c63a                	sw	a4,12(sp)
    26e4:	0207c163          	bltz	a5,2706 <_vfiprintf_r+0x1b0>
    26e8:	ca3e                	sw	a5,20(sp)
    26ea:	a82d                	j	2724 <_vfiprintf_r+0x1ce>
    26ec:	40e00733          	neg	a4,a4
    26f0:	0027e793          	ori	a5,a5,2
    26f4:	ce3a                	sw	a4,28(sp)
    26f6:	c83e                	sw	a5,16(sp)
    26f8:	b7f1                	j	26c4 <_vfiprintf_r+0x16e>
    26fa:	036787b3          	mul	a5,a5,s6
    26fe:	4685                	li	a3,1
    2700:	842e                	mv	s0,a1
    2702:	97ba                	add	a5,a5,a4
    2704:	bf3d                	j	2642 <_vfiprintf_r+0xec>
    2706:	57fd                	li	a5,-1
    2708:	b7c5                	j	26e8 <_vfiprintf_r+0x192>
    270a:	0405                	addi	s0,s0,1
    270c:	ca02                	sw	zero,20(sp)
    270e:	4681                	li	a3,0
    2710:	4781                	li	a5,0
    2712:	4625                	li	a2,9
    2714:	2018                	lbu	a4,0(s0)
    2716:	00140593          	addi	a1,s0,1
    271a:	fd070713          	addi	a4,a4,-48
    271e:	06e67463          	bgeu	a2,a4,2786 <_vfiprintf_r+0x230>
    2722:	f2f9                	bnez	a3,26e8 <_vfiprintf_r+0x192>
    2724:	200c                	lbu	a1,0(s0)
    2726:	460d                	li	a2,3
    2728:	00001517          	auipc	a0,0x1
    272c:	98450513          	addi	a0,a0,-1660 # 30ac <__sf_fake_stdout+0x28>
    2730:	2501                	jal	2d30 <memchr>
    2732:	cd11                	beqz	a0,274e <_vfiprintf_r+0x1f8>
    2734:	00001797          	auipc	a5,0x1
    2738:	97878793          	addi	a5,a5,-1672 # 30ac <__sf_fake_stdout+0x28>
    273c:	8d1d                	sub	a0,a0,a5
    273e:	04000793          	li	a5,64
    2742:	00a797b3          	sll	a5,a5,a0
    2746:	4542                	lw	a0,16(sp)
    2748:	0405                	addi	s0,s0,1
    274a:	8d5d                	or	a0,a0,a5
    274c:	c82a                	sw	a0,16(sp)
    274e:	200c                	lbu	a1,0(s0)
    2750:	4619                	li	a2,6
    2752:	00001517          	auipc	a0,0x1
    2756:	95e50513          	addi	a0,a0,-1698 # 30b0 <__sf_fake_stdout+0x2c>
    275a:	00140913          	addi	s2,s0,1
    275e:	02b10423          	sb	a1,40(sp)
    2762:	23f9                	jal	2d30 <memchr>
    2764:	c135                	beqz	a0,27c8 <_vfiprintf_r+0x272>
    2766:	ffffe797          	auipc	a5,0xffffe
    276a:	89a78793          	addi	a5,a5,-1894 # 0 <_sinit>
    276e:	e795                	bnez	a5,279a <_vfiprintf_r+0x244>
    2770:	4742                	lw	a4,16(sp)
    2772:	47b2                	lw	a5,12(sp)
    2774:	10077713          	andi	a4,a4,256
    2778:	cf09                	beqz	a4,2792 <_vfiprintf_r+0x23c>
    277a:	0791                	addi	a5,a5,4
    277c:	c63e                	sw	a5,12(sp)
    277e:	5792                	lw	a5,36(sp)
    2780:	97d2                	add	a5,a5,s4
    2782:	d23e                	sw	a5,36(sp)
    2784:	bd2d                	j	25be <_vfiprintf_r+0x68>
    2786:	036787b3          	mul	a5,a5,s6
    278a:	4685                	li	a3,1
    278c:	842e                	mv	s0,a1
    278e:	97ba                	add	a5,a5,a4
    2790:	b751                	j	2714 <_vfiprintf_r+0x1be>
    2792:	079d                	addi	a5,a5,7
    2794:	9be1                	andi	a5,a5,-8
    2796:	07a1                	addi	a5,a5,8
    2798:	b7d5                	j	277c <_vfiprintf_r+0x226>
    279a:	0078                	addi	a4,sp,12
    279c:	00000697          	auipc	a3,0x0
    27a0:	d7a68693          	addi	a3,a3,-646 # 2516 <__sfputs_r>
    27a4:	8626                	mv	a2,s1
    27a6:	080c                	addi	a1,sp,16
    27a8:	854e                	mv	a0,s3
    27aa:	00000097          	auipc	ra,0x0
    27ae:	000000e7          	jalr	zero # 0 <_sinit>
    27b2:	57fd                	li	a5,-1
    27b4:	8a2a                	mv	s4,a0
    27b6:	fcf514e3          	bne	a0,a5,277e <_vfiprintf_r+0x228>
    27ba:	24de                	lhu	a5,12(s1)
    27bc:	0407f793          	andi	a5,a5,64
    27c0:	ec0792e3          	bnez	a5,2684 <_vfiprintf_r+0x12e>
    27c4:	5512                	lw	a0,36(sp)
    27c6:	b5c1                	j	2686 <_vfiprintf_r+0x130>
    27c8:	0078                	addi	a4,sp,12
    27ca:	00000697          	auipc	a3,0x0
    27ce:	d4c68693          	addi	a3,a3,-692 # 2516 <__sfputs_r>
    27d2:	8626                	mv	a2,s1
    27d4:	080c                	addi	a1,sp,16
    27d6:	854e                	mv	a0,s3
    27d8:	2a01                	jal	28e8 <_printf_i>
    27da:	bfe1                	j	27b2 <_vfiprintf_r+0x25c>

000027dc <_printf_common>:
    27dc:	7179                	addi	sp,sp,-48
    27de:	ca56                	sw	s5,20(sp)
    27e0:	499c                	lw	a5,16(a1)
    27e2:	8aba                	mv	s5,a4
    27e4:	4598                	lw	a4,8(a1)
    27e6:	d422                	sw	s0,40(sp)
    27e8:	d226                	sw	s1,36(sp)
    27ea:	ce4e                	sw	s3,28(sp)
    27ec:	cc52                	sw	s4,24(sp)
    27ee:	d606                	sw	ra,44(sp)
    27f0:	d04a                	sw	s2,32(sp)
    27f2:	c85a                	sw	s6,16(sp)
    27f4:	c65e                	sw	s7,12(sp)
    27f6:	89aa                	mv	s3,a0
    27f8:	842e                	mv	s0,a1
    27fa:	84b2                	mv	s1,a2
    27fc:	8a36                	mv	s4,a3
    27fe:	00e7d363          	bge	a5,a4,2804 <_printf_common+0x28>
    2802:	87ba                	mv	a5,a4
    2804:	c09c                	sw	a5,0(s1)
    2806:	04344703          	lbu	a4,67(s0)
    280a:	c319                	beqz	a4,2810 <_printf_common+0x34>
    280c:	0785                	addi	a5,a5,1
    280e:	c09c                	sw	a5,0(s1)
    2810:	401c                	lw	a5,0(s0)
    2812:	0207f793          	andi	a5,a5,32
    2816:	c781                	beqz	a5,281e <_printf_common+0x42>
    2818:	409c                	lw	a5,0(s1)
    281a:	0789                	addi	a5,a5,2
    281c:	c09c                	sw	a5,0(s1)
    281e:	00042903          	lw	s2,0(s0)
    2822:	00697913          	andi	s2,s2,6
    2826:	00091a63          	bnez	s2,283a <_printf_common+0x5e>
    282a:	01940b13          	addi	s6,s0,25
    282e:	5bfd                	li	s7,-1
    2830:	445c                	lw	a5,12(s0)
    2832:	4098                	lw	a4,0(s1)
    2834:	8f99                	sub	a5,a5,a4
    2836:	04f94c63          	blt	s2,a5,288e <_printf_common+0xb2>
    283a:	401c                	lw	a5,0(s0)
    283c:	04344683          	lbu	a3,67(s0)
    2840:	0207f793          	andi	a5,a5,32
    2844:	00d036b3          	snez	a3,a3
    2848:	eba5                	bnez	a5,28b8 <_printf_common+0xdc>
    284a:	04340613          	addi	a2,s0,67
    284e:	85d2                	mv	a1,s4
    2850:	854e                	mv	a0,s3
    2852:	9a82                	jalr	s5
    2854:	57fd                	li	a5,-1
    2856:	04f50363          	beq	a0,a5,289c <_printf_common+0xc0>
    285a:	401c                	lw	a5,0(s0)
    285c:	4611                	li	a2,4
    285e:	4098                	lw	a4,0(s1)
    2860:	8b99                	andi	a5,a5,6
    2862:	4454                	lw	a3,12(s0)
    2864:	4481                	li	s1,0
    2866:	00c79763          	bne	a5,a2,2874 <_printf_common+0x98>
    286a:	40e684b3          	sub	s1,a3,a4
    286e:	0004d363          	bgez	s1,2874 <_printf_common+0x98>
    2872:	4481                	li	s1,0
    2874:	441c                	lw	a5,8(s0)
    2876:	4818                	lw	a4,16(s0)
    2878:	00f75463          	bge	a4,a5,2880 <_printf_common+0xa4>
    287c:	8f99                	sub	a5,a5,a4
    287e:	94be                	add	s1,s1,a5
    2880:	4901                	li	s2,0
    2882:	0469                	addi	s0,s0,26
    2884:	5b7d                	li	s6,-1
    2886:	05249863          	bne	s1,s2,28d6 <_printf_common+0xfa>
    288a:	4501                	li	a0,0
    288c:	a809                	j	289e <_printf_common+0xc2>
    288e:	4685                	li	a3,1
    2890:	865a                	mv	a2,s6
    2892:	85d2                	mv	a1,s4
    2894:	854e                	mv	a0,s3
    2896:	9a82                	jalr	s5
    2898:	01751e63          	bne	a0,s7,28b4 <_printf_common+0xd8>
    289c:	557d                	li	a0,-1
    289e:	50b2                	lw	ra,44(sp)
    28a0:	5422                	lw	s0,40(sp)
    28a2:	5492                	lw	s1,36(sp)
    28a4:	5902                	lw	s2,32(sp)
    28a6:	49f2                	lw	s3,28(sp)
    28a8:	4a62                	lw	s4,24(sp)
    28aa:	4ad2                	lw	s5,20(sp)
    28ac:	4b42                	lw	s6,16(sp)
    28ae:	4bb2                	lw	s7,12(sp)
    28b0:	6145                	addi	sp,sp,48
    28b2:	8082                	ret
    28b4:	0905                	addi	s2,s2,1
    28b6:	bfad                	j	2830 <_printf_common+0x54>
    28b8:	00d40733          	add	a4,s0,a3
    28bc:	03000613          	li	a2,48
    28c0:	04c701a3          	sb	a2,67(a4)
    28c4:	04544703          	lbu	a4,69(s0)
    28c8:	00168793          	addi	a5,a3,1
    28cc:	97a2                	add	a5,a5,s0
    28ce:	0689                	addi	a3,a3,2
    28d0:	04e781a3          	sb	a4,67(a5)
    28d4:	bf9d                	j	284a <_printf_common+0x6e>
    28d6:	4685                	li	a3,1
    28d8:	8622                	mv	a2,s0
    28da:	85d2                	mv	a1,s4
    28dc:	854e                	mv	a0,s3
    28de:	9a82                	jalr	s5
    28e0:	fb650ee3          	beq	a0,s6,289c <_printf_common+0xc0>
    28e4:	0905                	addi	s2,s2,1
    28e6:	b745                	j	2886 <_printf_common+0xaa>

000028e8 <_printf_i>:
    28e8:	7179                	addi	sp,sp,-48
    28ea:	d422                	sw	s0,40(sp)
    28ec:	d226                	sw	s1,36(sp)
    28ee:	d04a                	sw	s2,32(sp)
    28f0:	ce4e                	sw	s3,28(sp)
    28f2:	d606                	sw	ra,44(sp)
    28f4:	cc52                	sw	s4,24(sp)
    28f6:	ca56                	sw	s5,20(sp)
    28f8:	c85a                	sw	s6,16(sp)
    28fa:	89b6                	mv	s3,a3
    28fc:	2d94                	lbu	a3,24(a1)
    28fe:	06900793          	li	a5,105
    2902:	8932                	mv	s2,a2
    2904:	84aa                	mv	s1,a0
    2906:	842e                	mv	s0,a1
    2908:	04358613          	addi	a2,a1,67
    290c:	02f68d63          	beq	a3,a5,2946 <_printf_i+0x5e>
    2910:	06d7e263          	bltu	a5,a3,2974 <_printf_i+0x8c>
    2914:	05800793          	li	a5,88
    2918:	18f68563          	beq	a3,a5,2aa2 <_printf_i+0x1ba>
    291c:	00d7ed63          	bltu	a5,a3,2936 <_printf_i+0x4e>
    2920:	20068d63          	beqz	a3,2b3a <_printf_i+0x252>
    2924:	04300793          	li	a5,67
    2928:	0af68e63          	beq	a3,a5,29e4 <_printf_i+0xfc>
    292c:	04240a93          	addi	s5,s0,66
    2930:	04d40123          	sb	a3,66(s0)
    2934:	a0c9                	j	29f6 <_printf_i+0x10e>
    2936:	06300793          	li	a5,99
    293a:	0af68563          	beq	a3,a5,29e4 <_printf_i+0xfc>
    293e:	06400793          	li	a5,100
    2942:	fef695e3          	bne	a3,a5,292c <_printf_i+0x44>
    2946:	401c                	lw	a5,0(s0)
    2948:	4308                	lw	a0,0(a4)
    294a:	0807f693          	andi	a3,a5,128
    294e:	00450593          	addi	a1,a0,4
    2952:	c6c5                	beqz	a3,29fa <_printf_i+0x112>
    2954:	411c                	lw	a5,0(a0)
    2956:	c30c                	sw	a1,0(a4)
    2958:	0007d863          	bgez	a5,2968 <_printf_i+0x80>
    295c:	02d00713          	li	a4,45
    2960:	40f007b3          	neg	a5,a5
    2964:	04e401a3          	sb	a4,67(s0)
    2968:	00000697          	auipc	a3,0x0
    296c:	75068693          	addi	a3,a3,1872 # 30b8 <__sf_fake_stdout+0x34>
    2970:	4729                	li	a4,10
    2972:	a865                	j	2a2a <_printf_i+0x142>
    2974:	07000793          	li	a5,112
    2978:	16f68163          	beq	a3,a5,2ada <_printf_i+0x1f2>
    297c:	02d7e563          	bltu	a5,a3,29a6 <_printf_i+0xbe>
    2980:	06e00793          	li	a5,110
    2984:	18f68863          	beq	a3,a5,2b14 <_printf_i+0x22c>
    2988:	06f00793          	li	a5,111
    298c:	faf690e3          	bne	a3,a5,292c <_printf_i+0x44>
    2990:	400c                	lw	a1,0(s0)
    2992:	431c                	lw	a5,0(a4)
    2994:	0805f813          	andi	a6,a1,128
    2998:	00478513          	addi	a0,a5,4
    299c:	06080763          	beqz	a6,2a0a <_printf_i+0x122>
    29a0:	c308                	sw	a0,0(a4)
    29a2:	439c                	lw	a5,0(a5)
    29a4:	a885                	j	2a14 <_printf_i+0x12c>
    29a6:	07500793          	li	a5,117
    29aa:	fef683e3          	beq	a3,a5,2990 <_printf_i+0xa8>
    29ae:	07800793          	li	a5,120
    29b2:	12f68863          	beq	a3,a5,2ae2 <_printf_i+0x1fa>
    29b6:	07300793          	li	a5,115
    29ba:	f6f699e3          	bne	a3,a5,292c <_printf_i+0x44>
    29be:	431c                	lw	a5,0(a4)
    29c0:	41d0                	lw	a2,4(a1)
    29c2:	4581                	li	a1,0
    29c4:	00478693          	addi	a3,a5,4
    29c8:	c314                	sw	a3,0(a4)
    29ca:	0007aa83          	lw	s5,0(a5)
    29ce:	8556                	mv	a0,s5
    29d0:	2685                	jal	2d30 <memchr>
    29d2:	c501                	beqz	a0,29da <_printf_i+0xf2>
    29d4:	41550533          	sub	a0,a0,s5
    29d8:	c048                	sw	a0,4(s0)
    29da:	405c                	lw	a5,4(s0)
    29dc:	c81c                	sw	a5,16(s0)
    29de:	040401a3          	sb	zero,67(s0)
    29e2:	a861                	j	2a7a <_printf_i+0x192>
    29e4:	431c                	lw	a5,0(a4)
    29e6:	04240a93          	addi	s5,s0,66
    29ea:	00478693          	addi	a3,a5,4
    29ee:	439c                	lw	a5,0(a5)
    29f0:	c314                	sw	a3,0(a4)
    29f2:	04f40123          	sb	a5,66(s0)
    29f6:	4785                	li	a5,1
    29f8:	b7d5                	j	29dc <_printf_i+0xf4>
    29fa:	0407f693          	andi	a3,a5,64
    29fe:	411c                	lw	a5,0(a0)
    2a00:	c30c                	sw	a1,0(a4)
    2a02:	dab9                	beqz	a3,2958 <_printf_i+0x70>
    2a04:	07c2                	slli	a5,a5,0x10
    2a06:	87c1                	srai	a5,a5,0x10
    2a08:	bf81                	j	2958 <_printf_i+0x70>
    2a0a:	0405f593          	andi	a1,a1,64
    2a0e:	c308                	sw	a0,0(a4)
    2a10:	d9c9                	beqz	a1,29a2 <_printf_i+0xba>
    2a12:	239e                	lhu	a5,0(a5)
    2a14:	06f00713          	li	a4,111
    2a18:	0ee68663          	beq	a3,a4,2b04 <_printf_i+0x21c>
    2a1c:	00000697          	auipc	a3,0x0
    2a20:	69c68693          	addi	a3,a3,1692 # 30b8 <__sf_fake_stdout+0x34>
    2a24:	4729                	li	a4,10
    2a26:	040401a3          	sb	zero,67(s0)
    2a2a:	404c                	lw	a1,4(s0)
    2a2c:	c40c                	sw	a1,8(s0)
    2a2e:	0005c563          	bltz	a1,2a38 <_printf_i+0x150>
    2a32:	4008                	lw	a0,0(s0)
    2a34:	996d                	andi	a0,a0,-5
    2a36:	c008                	sw	a0,0(s0)
    2a38:	e399                	bnez	a5,2a3e <_printf_i+0x156>
    2a3a:	8ab2                	mv	s5,a2
    2a3c:	cd89                	beqz	a1,2a56 <_printf_i+0x16e>
    2a3e:	8ab2                	mv	s5,a2
    2a40:	02e7f5b3          	remu	a1,a5,a4
    2a44:	1afd                	addi	s5,s5,-1
    2a46:	95b6                	add	a1,a1,a3
    2a48:	218c                	lbu	a1,0(a1)
    2a4a:	00ba8023          	sb	a1,0(s5)
    2a4e:	02e7d5b3          	divu	a1,a5,a4
    2a52:	0ae7ff63          	bgeu	a5,a4,2b10 <_printf_i+0x228>
    2a56:	47a1                	li	a5,8
    2a58:	00f71e63          	bne	a4,a5,2a74 <_printf_i+0x18c>
    2a5c:	401c                	lw	a5,0(s0)
    2a5e:	8b85                	andi	a5,a5,1
    2a60:	cb91                	beqz	a5,2a74 <_printf_i+0x18c>
    2a62:	4058                	lw	a4,4(s0)
    2a64:	481c                	lw	a5,16(s0)
    2a66:	00e7c763          	blt	a5,a4,2a74 <_printf_i+0x18c>
    2a6a:	03000793          	li	a5,48
    2a6e:	fefa8fa3          	sb	a5,-1(s5)
    2a72:	1afd                	addi	s5,s5,-1
    2a74:	41560633          	sub	a2,a2,s5
    2a78:	c810                	sw	a2,16(s0)
    2a7a:	874e                	mv	a4,s3
    2a7c:	86ca                	mv	a3,s2
    2a7e:	0070                	addi	a2,sp,12
    2a80:	85a2                	mv	a1,s0
    2a82:	8526                	mv	a0,s1
    2a84:	3ba1                	jal	27dc <_printf_common>
    2a86:	5a7d                	li	s4,-1
    2a88:	0b451d63          	bne	a0,s4,2b42 <_printf_i+0x25a>
    2a8c:	557d                	li	a0,-1
    2a8e:	50b2                	lw	ra,44(sp)
    2a90:	5422                	lw	s0,40(sp)
    2a92:	5492                	lw	s1,36(sp)
    2a94:	5902                	lw	s2,32(sp)
    2a96:	49f2                	lw	s3,28(sp)
    2a98:	4a62                	lw	s4,24(sp)
    2a9a:	4ad2                	lw	s5,20(sp)
    2a9c:	4b42                	lw	s6,16(sp)
    2a9e:	6145                	addi	sp,sp,48
    2aa0:	8082                	ret
    2aa2:	04d582a3          	sb	a3,69(a1)
    2aa6:	00000697          	auipc	a3,0x0
    2aaa:	61268693          	addi	a3,a3,1554 # 30b8 <__sf_fake_stdout+0x34>
    2aae:	400c                	lw	a1,0(s0)
    2ab0:	4308                	lw	a0,0(a4)
    2ab2:	0805f813          	andi	a6,a1,128
    2ab6:	411c                	lw	a5,0(a0)
    2ab8:	0511                	addi	a0,a0,4
    2aba:	02080d63          	beqz	a6,2af4 <_printf_i+0x20c>
    2abe:	c308                	sw	a0,0(a4)
    2ac0:	0015f713          	andi	a4,a1,1
    2ac4:	c701                	beqz	a4,2acc <_printf_i+0x1e4>
    2ac6:	0205e593          	ori	a1,a1,32
    2aca:	c00c                	sw	a1,0(s0)
    2acc:	4741                	li	a4,16
    2ace:	ffa1                	bnez	a5,2a26 <_printf_i+0x13e>
    2ad0:	400c                	lw	a1,0(s0)
    2ad2:	fdf5f593          	andi	a1,a1,-33
    2ad6:	c00c                	sw	a1,0(s0)
    2ad8:	b7b9                	j	2a26 <_printf_i+0x13e>
    2ada:	419c                	lw	a5,0(a1)
    2adc:	0207e793          	ori	a5,a5,32
    2ae0:	c19c                	sw	a5,0(a1)
    2ae2:	07800793          	li	a5,120
    2ae6:	04f402a3          	sb	a5,69(s0)
    2aea:	00000697          	auipc	a3,0x0
    2aee:	5e268693          	addi	a3,a3,1506 # 30cc <__sf_fake_stdout+0x48>
    2af2:	bf75                	j	2aae <_printf_i+0x1c6>
    2af4:	0405f813          	andi	a6,a1,64
    2af8:	c308                	sw	a0,0(a4)
    2afa:	fc0803e3          	beqz	a6,2ac0 <_printf_i+0x1d8>
    2afe:	07c2                	slli	a5,a5,0x10
    2b00:	83c1                	srli	a5,a5,0x10
    2b02:	bf7d                	j	2ac0 <_printf_i+0x1d8>
    2b04:	00000697          	auipc	a3,0x0
    2b08:	5b468693          	addi	a3,a3,1460 # 30b8 <__sf_fake_stdout+0x34>
    2b0c:	4721                	li	a4,8
    2b0e:	bf21                	j	2a26 <_printf_i+0x13e>
    2b10:	87ae                	mv	a5,a1
    2b12:	b73d                	j	2a40 <_printf_i+0x158>
    2b14:	4194                	lw	a3,0(a1)
    2b16:	431c                	lw	a5,0(a4)
    2b18:	49cc                	lw	a1,20(a1)
    2b1a:	0806f813          	andi	a6,a3,128
    2b1e:	00478513          	addi	a0,a5,4
    2b22:	00080663          	beqz	a6,2b2e <_printf_i+0x246>
    2b26:	c308                	sw	a0,0(a4)
    2b28:	439c                	lw	a5,0(a5)
    2b2a:	c38c                	sw	a1,0(a5)
    2b2c:	a039                	j	2b3a <_printf_i+0x252>
    2b2e:	c308                	sw	a0,0(a4)
    2b30:	0406f693          	andi	a3,a3,64
    2b34:	439c                	lw	a5,0(a5)
    2b36:	daf5                	beqz	a3,2b2a <_printf_i+0x242>
    2b38:	a38e                	sh	a1,0(a5)
    2b3a:	00042823          	sw	zero,16(s0)
    2b3e:	8ab2                	mv	s5,a2
    2b40:	bf2d                	j	2a7a <_printf_i+0x192>
    2b42:	4814                	lw	a3,16(s0)
    2b44:	8656                	mv	a2,s5
    2b46:	85ca                	mv	a1,s2
    2b48:	8526                	mv	a0,s1
    2b4a:	9982                	jalr	s3
    2b4c:	f54500e3          	beq	a0,s4,2a8c <_printf_i+0x1a4>
    2b50:	401c                	lw	a5,0(s0)
    2b52:	8b89                	andi	a5,a5,2
    2b54:	e78d                	bnez	a5,2b7e <_printf_i+0x296>
    2b56:	47b2                	lw	a5,12(sp)
    2b58:	4448                	lw	a0,12(s0)
    2b5a:	f2f55ae3          	bge	a0,a5,2a8e <_printf_i+0x1a6>
    2b5e:	853e                	mv	a0,a5
    2b60:	b73d                	j	2a8e <_printf_i+0x1a6>
    2b62:	4685                	li	a3,1
    2b64:	8656                	mv	a2,s5
    2b66:	85ca                	mv	a1,s2
    2b68:	8526                	mv	a0,s1
    2b6a:	9982                	jalr	s3
    2b6c:	f36500e3          	beq	a0,s6,2a8c <_printf_i+0x1a4>
    2b70:	0a05                	addi	s4,s4,1
    2b72:	445c                	lw	a5,12(s0)
    2b74:	4732                	lw	a4,12(sp)
    2b76:	8f99                	sub	a5,a5,a4
    2b78:	fefa45e3          	blt	s4,a5,2b62 <_printf_i+0x27a>
    2b7c:	bfe9                	j	2b56 <_printf_i+0x26e>
    2b7e:	4a01                	li	s4,0
    2b80:	01940a93          	addi	s5,s0,25
    2b84:	5b7d                	li	s6,-1
    2b86:	b7f5                	j	2b72 <_printf_i+0x28a>

00002b88 <_sbrk_r>:
    2b88:	1141                	addi	sp,sp,-16
    2b8a:	c422                	sw	s0,8(sp)
    2b8c:	842a                	mv	s0,a0
    2b8e:	852e                	mv	a0,a1
    2b90:	8801aa23          	sw	zero,-1900(gp) # 20000114 <errno>
    2b94:	c606                	sw	ra,12(sp)
    2b96:	ee2fe0ef          	jal	ra,1278 <_sbrk>
    2b9a:	57fd                	li	a5,-1
    2b9c:	00f51763          	bne	a0,a5,2baa <_sbrk_r+0x22>
    2ba0:	89418793          	addi	a5,gp,-1900 # 20000114 <errno>
    2ba4:	439c                	lw	a5,0(a5)
    2ba6:	c391                	beqz	a5,2baa <_sbrk_r+0x22>
    2ba8:	c01c                	sw	a5,0(s0)
    2baa:	40b2                	lw	ra,12(sp)
    2bac:	4422                	lw	s0,8(sp)
    2bae:	0141                	addi	sp,sp,16
    2bb0:	8082                	ret

00002bb2 <__sread>:
    2bb2:	1141                	addi	sp,sp,-16
    2bb4:	c422                	sw	s0,8(sp)
    2bb6:	842e                	mv	s0,a1
    2bb8:	00e59583          	lh	a1,14(a1)
    2bbc:	c606                	sw	ra,12(sp)
    2bbe:	2279                	jal	2d4c <_read_r>
    2bc0:	00054963          	bltz	a0,2bd2 <__sread+0x20>
    2bc4:	487c                	lw	a5,84(s0)
    2bc6:	97aa                	add	a5,a5,a0
    2bc8:	c87c                	sw	a5,84(s0)
    2bca:	40b2                	lw	ra,12(sp)
    2bcc:	4422                	lw	s0,8(sp)
    2bce:	0141                	addi	sp,sp,16
    2bd0:	8082                	ret
    2bd2:	245e                	lhu	a5,12(s0)
    2bd4:	777d                	lui	a4,0xfffff
    2bd6:	177d                	addi	a4,a4,-1
    2bd8:	8ff9                	and	a5,a5,a4
    2bda:	a45e                	sh	a5,12(s0)
    2bdc:	b7fd                	j	2bca <__sread+0x18>

00002bde <__swrite>:
    2bde:	25de                	lhu	a5,12(a1)
    2be0:	1101                	addi	sp,sp,-32
    2be2:	cc22                	sw	s0,24(sp)
    2be4:	ca26                	sw	s1,20(sp)
    2be6:	c84a                	sw	s2,16(sp)
    2be8:	c64e                	sw	s3,12(sp)
    2bea:	ce06                	sw	ra,28(sp)
    2bec:	1007f793          	andi	a5,a5,256
    2bf0:	84aa                	mv	s1,a0
    2bf2:	842e                	mv	s0,a1
    2bf4:	8932                	mv	s2,a2
    2bf6:	89b6                	mv	s3,a3
    2bf8:	c791                	beqz	a5,2c04 <__swrite+0x26>
    2bfa:	00e59583          	lh	a1,14(a1)
    2bfe:	4689                	li	a3,2
    2c00:	4601                	li	a2,0
    2c02:	2209                	jal	2d04 <_lseek_r>
    2c04:	245e                	lhu	a5,12(s0)
    2c06:	777d                	lui	a4,0xfffff
    2c08:	177d                	addi	a4,a4,-1
    2c0a:	8ff9                	and	a5,a5,a4
    2c0c:	a45e                	sh	a5,12(s0)
    2c0e:	00e41583          	lh	a1,14(s0)
    2c12:	4462                	lw	s0,24(sp)
    2c14:	40f2                	lw	ra,28(sp)
    2c16:	86ce                	mv	a3,s3
    2c18:	864a                	mv	a2,s2
    2c1a:	49b2                	lw	s3,12(sp)
    2c1c:	4942                	lw	s2,16(sp)
    2c1e:	8526                	mv	a0,s1
    2c20:	44d2                	lw	s1,20(sp)
    2c22:	6105                	addi	sp,sp,32
    2c24:	a825                	j	2c5c <_write_r>

00002c26 <__sseek>:
    2c26:	1141                	addi	sp,sp,-16
    2c28:	c422                	sw	s0,8(sp)
    2c2a:	842e                	mv	s0,a1
    2c2c:	00e59583          	lh	a1,14(a1)
    2c30:	c606                	sw	ra,12(sp)
    2c32:	28c9                	jal	2d04 <_lseek_r>
    2c34:	57fd                	li	a5,-1
    2c36:	245a                	lhu	a4,12(s0)
    2c38:	00f51a63          	bne	a0,a5,2c4c <__sseek+0x26>
    2c3c:	77fd                	lui	a5,0xfffff
    2c3e:	17fd                	addi	a5,a5,-1
    2c40:	8ff9                	and	a5,a5,a4
    2c42:	a45e                	sh	a5,12(s0)
    2c44:	40b2                	lw	ra,12(sp)
    2c46:	4422                	lw	s0,8(sp)
    2c48:	0141                	addi	sp,sp,16
    2c4a:	8082                	ret
    2c4c:	6785                	lui	a5,0x1
    2c4e:	8fd9                	or	a5,a5,a4
    2c50:	a45e                	sh	a5,12(s0)
    2c52:	c868                	sw	a0,84(s0)
    2c54:	bfc5                	j	2c44 <__sseek+0x1e>

00002c56 <__sclose>:
    2c56:	00e59583          	lh	a1,14(a1)
    2c5a:	a805                	j	2c8a <_close_r>

00002c5c <_write_r>:
    2c5c:	1141                	addi	sp,sp,-16
    2c5e:	c422                	sw	s0,8(sp)
    2c60:	842a                	mv	s0,a0
    2c62:	852e                	mv	a0,a1
    2c64:	85b2                	mv	a1,a2
    2c66:	8636                	mv	a2,a3
    2c68:	8801aa23          	sw	zero,-1900(gp) # 20000114 <errno>
    2c6c:	c606                	sw	ra,12(sp)
    2c6e:	dccfe0ef          	jal	ra,123a <_write>
    2c72:	57fd                	li	a5,-1
    2c74:	00f51763          	bne	a0,a5,2c82 <_write_r+0x26>
    2c78:	89418793          	addi	a5,gp,-1900 # 20000114 <errno>
    2c7c:	439c                	lw	a5,0(a5)
    2c7e:	c391                	beqz	a5,2c82 <_write_r+0x26>
    2c80:	c01c                	sw	a5,0(s0)
    2c82:	40b2                	lw	ra,12(sp)
    2c84:	4422                	lw	s0,8(sp)
    2c86:	0141                	addi	sp,sp,16
    2c88:	8082                	ret

00002c8a <_close_r>:
    2c8a:	1141                	addi	sp,sp,-16
    2c8c:	c422                	sw	s0,8(sp)
    2c8e:	842a                	mv	s0,a0
    2c90:	852e                	mv	a0,a1
    2c92:	8801aa23          	sw	zero,-1900(gp) # 20000114 <errno>
    2c96:	c606                	sw	ra,12(sp)
    2c98:	20c5                	jal	2d78 <_close>
    2c9a:	57fd                	li	a5,-1
    2c9c:	00f51763          	bne	a0,a5,2caa <_close_r+0x20>
    2ca0:	89418793          	addi	a5,gp,-1900 # 20000114 <errno>
    2ca4:	439c                	lw	a5,0(a5)
    2ca6:	c391                	beqz	a5,2caa <_close_r+0x20>
    2ca8:	c01c                	sw	a5,0(s0)
    2caa:	40b2                	lw	ra,12(sp)
    2cac:	4422                	lw	s0,8(sp)
    2cae:	0141                	addi	sp,sp,16
    2cb0:	8082                	ret

00002cb2 <_fstat_r>:
    2cb2:	1141                	addi	sp,sp,-16
    2cb4:	c422                	sw	s0,8(sp)
    2cb6:	842a                	mv	s0,a0
    2cb8:	852e                	mv	a0,a1
    2cba:	85b2                	mv	a1,a2
    2cbc:	8801aa23          	sw	zero,-1900(gp) # 20000114 <errno>
    2cc0:	c606                	sw	ra,12(sp)
    2cc2:	20c9                	jal	2d84 <_fstat>
    2cc4:	57fd                	li	a5,-1
    2cc6:	00f51763          	bne	a0,a5,2cd4 <_fstat_r+0x22>
    2cca:	89418793          	addi	a5,gp,-1900 # 20000114 <errno>
    2cce:	439c                	lw	a5,0(a5)
    2cd0:	c391                	beqz	a5,2cd4 <_fstat_r+0x22>
    2cd2:	c01c                	sw	a5,0(s0)
    2cd4:	40b2                	lw	ra,12(sp)
    2cd6:	4422                	lw	s0,8(sp)
    2cd8:	0141                	addi	sp,sp,16
    2cda:	8082                	ret

00002cdc <_isatty_r>:
    2cdc:	1141                	addi	sp,sp,-16
    2cde:	c422                	sw	s0,8(sp)
    2ce0:	842a                	mv	s0,a0
    2ce2:	852e                	mv	a0,a1
    2ce4:	8801aa23          	sw	zero,-1900(gp) # 20000114 <errno>
    2ce8:	c606                	sw	ra,12(sp)
    2cea:	205d                	jal	2d90 <_isatty>
    2cec:	57fd                	li	a5,-1
    2cee:	00f51763          	bne	a0,a5,2cfc <_isatty_r+0x20>
    2cf2:	89418793          	addi	a5,gp,-1900 # 20000114 <errno>
    2cf6:	439c                	lw	a5,0(a5)
    2cf8:	c391                	beqz	a5,2cfc <_isatty_r+0x20>
    2cfa:	c01c                	sw	a5,0(s0)
    2cfc:	40b2                	lw	ra,12(sp)
    2cfe:	4422                	lw	s0,8(sp)
    2d00:	0141                	addi	sp,sp,16
    2d02:	8082                	ret

00002d04 <_lseek_r>:
    2d04:	1141                	addi	sp,sp,-16
    2d06:	c422                	sw	s0,8(sp)
    2d08:	842a                	mv	s0,a0
    2d0a:	852e                	mv	a0,a1
    2d0c:	85b2                	mv	a1,a2
    2d0e:	8636                	mv	a2,a3
    2d10:	8801aa23          	sw	zero,-1900(gp) # 20000114 <errno>
    2d14:	c606                	sw	ra,12(sp)
    2d16:	2059                	jal	2d9c <_lseek>
    2d18:	57fd                	li	a5,-1
    2d1a:	00f51763          	bne	a0,a5,2d28 <_lseek_r+0x24>
    2d1e:	89418793          	addi	a5,gp,-1900 # 20000114 <errno>
    2d22:	439c                	lw	a5,0(a5)
    2d24:	c391                	beqz	a5,2d28 <_lseek_r+0x24>
    2d26:	c01c                	sw	a5,0(s0)
    2d28:	40b2                	lw	ra,12(sp)
    2d2a:	4422                	lw	s0,8(sp)
    2d2c:	0141                	addi	sp,sp,16
    2d2e:	8082                	ret

00002d30 <memchr>:
    2d30:	0ff5f593          	andi	a1,a1,255
    2d34:	962a                	add	a2,a2,a0
    2d36:	00c51463          	bne	a0,a2,2d3e <memchr+0xe>
    2d3a:	4501                	li	a0,0
    2d3c:	8082                	ret
    2d3e:	211c                	lbu	a5,0(a0)
    2d40:	feb78ee3          	beq	a5,a1,2d3c <memchr+0xc>
    2d44:	0505                	addi	a0,a0,1
    2d46:	bfc5                	j	2d36 <memchr+0x6>

00002d48 <__malloc_lock>:
    2d48:	8082                	ret

00002d4a <__malloc_unlock>:
    2d4a:	8082                	ret

00002d4c <_read_r>:
    2d4c:	1141                	addi	sp,sp,-16
    2d4e:	c422                	sw	s0,8(sp)
    2d50:	842a                	mv	s0,a0
    2d52:	852e                	mv	a0,a1
    2d54:	85b2                	mv	a1,a2
    2d56:	8636                	mv	a2,a3
    2d58:	8801aa23          	sw	zero,-1900(gp) # 20000114 <errno>
    2d5c:	c606                	sw	ra,12(sp)
    2d5e:	20a9                	jal	2da8 <_read>
    2d60:	57fd                	li	a5,-1
    2d62:	00f51763          	bne	a0,a5,2d70 <_read_r+0x24>
    2d66:	89418793          	addi	a5,gp,-1900 # 20000114 <errno>
    2d6a:	439c                	lw	a5,0(a5)
    2d6c:	c391                	beqz	a5,2d70 <_read_r+0x24>
    2d6e:	c01c                	sw	a5,0(s0)
    2d70:	40b2                	lw	ra,12(sp)
    2d72:	4422                	lw	s0,8(sp)
    2d74:	0141                	addi	sp,sp,16
    2d76:	8082                	ret

00002d78 <_close>:
    2d78:	05800793          	li	a5,88
    2d7c:	88f1aa23          	sw	a5,-1900(gp) # 20000114 <errno>
    2d80:	557d                	li	a0,-1
    2d82:	8082                	ret

00002d84 <_fstat>:
    2d84:	05800793          	li	a5,88
    2d88:	88f1aa23          	sw	a5,-1900(gp) # 20000114 <errno>
    2d8c:	557d                	li	a0,-1
    2d8e:	8082                	ret

00002d90 <_isatty>:
    2d90:	05800793          	li	a5,88
    2d94:	88f1aa23          	sw	a5,-1900(gp) # 20000114 <errno>
    2d98:	4501                	li	a0,0
    2d9a:	8082                	ret

00002d9c <_lseek>:
    2d9c:	05800793          	li	a5,88
    2da0:	88f1aa23          	sw	a5,-1900(gp) # 20000114 <errno>
    2da4:	557d                	li	a0,-1
    2da6:	8082                	ret

00002da8 <_read>:
    2da8:	05800793          	li	a5,88
    2dac:	88f1aa23          	sw	a5,-1900(gp) # 20000114 <errno>
    2db0:	557d                	li	a0,-1
    2db2:	8082                	ret
    2db4:	706d                	c.lui	zero,0xffffb
    2db6:	3675                	jal	2962 <_printf_i+0x7a>
    2db8:	3530                	lbu	a2,11(a0)
    2dba:	b330                	sb	a2,3(a4)
    2dbc:	caf5                	beqz	a3,2eb0 <_read+0x108>
    2dbe:	bbbc                	sb	a5,19(a5)
    2dc0:	b9c9b3af          	0xb9c9b3af
    2dc4:	00a6                	slli	ra,ra,0x9
    2dc6:	0000                	unimp
    2dc8:	706d                	c.lui	zero,0xffffb
    2dca:	3675                	jal	2976 <_printf_i+0x8e>
    2dcc:	3530                	lbu	a2,11(a0)
    2dce:	b330                	sb	a2,3(a4)
    2dd0:	caf5                	beqz	a3,2ec4 <_read+0x11c>
    2dd2:	bbbc                	sb	a5,19(a5)
    2dd4:	b0a7caaf          	0xb0a7caaf
    2dd8:	00dc                	addi	a5,sp,68
    2dda:	0000                	unimp
    2ddc:	706d                	c.lui	zero,0xffffb
    2dde:	3675                	jal	298a <_printf_i+0xa2>
    2de0:	3530                	lbu	a2,11(a0)
    2de2:	ce30                	sw	a2,88(a2)
    2de4:	b6c2                	sh	s0,44(a3)
    2de6:	c4c8                	sw	a0,12(s1)
    2de8:	b3e9bfa3          	0xb3e9bfa3
    2dec:	caf5                	beqz	a3,2ee0 <_read+0x138>
    2dee:	bbbc                	sb	a5,19(a5)
    2df0:	b9c9b3af          	0xb9c9b3af
    2df4:	00a6                	slli	ra,ra,0x9
    2df6:	0000                	unimp
    2df8:	706d                	c.lui	zero,0xffffb
    2dfa:	3675                	jal	29a6 <_printf_i+0xbe>
    2dfc:	3530                	lbu	a2,11(a0)
    2dfe:	ce30                	sw	a2,88(a2)
    2e00:	b6c2                	sh	s0,44(a3)
    2e02:	b3c8                	sb	a0,5(a5)
    2e04:	caf5                	beqz	a3,2ef8 <_read+0x150>
    2e06:	bbbc                	sb	a5,19(a5)
    2e08:	b0a7caaf          	0xb0a7caaf
    2e0c:	00dc                	addi	a5,sp,68
    2e0e:	0000                	unimp
    2e10:	706d                	c.lui	zero,0xffffb
    2e12:	3675                	jal	29be <_printf_i+0xd6>
    2e14:	3530                	lbu	a2,11(a0)
    2e16:	cd30                	sw	a2,88(a0)
    2e18:	d2ddc2d3          	0xd2ddc2d3
    2e1c:	bfa3c4c7          	fmsub.q	fs1,ft7,fs10,fs7,rmm
    2e20:	b3e9                	j	2bea <__swrite+0xc>
    2e22:	caf5                	beqz	a3,2f16 <_read+0x16e>
    2e24:	bbbc                	sb	a5,19(a5)
    2e26:	b9c9b3af          	0xb9c9b3af
    2e2a:	00a6                	slli	ra,ra,0x9
    2e2c:	706d                	c.lui	zero,0xffffb
    2e2e:	3675                	jal	29da <_printf_i+0xf2>
    2e30:	3530                	lbu	a2,11(a0)
    2e32:	cd30                	sw	a2,88(a0)
    2e34:	d2ddc2d3          	0xd2ddc2d3
    2e38:	caf5b3c7          	fmsub.d	ft7,fa1,fa5,fs9,rup
    2e3c:	bbbc                	sb	a5,19(a5)
    2e3e:	b0a7caaf          	0xb0a7caaf
    2e42:	00dc                	addi	a5,sp,68
    2e44:	706d                	c.lui	zero,0xffffb
    2e46:	3675                	jal	29f2 <_printf_i+0x10a>
    2e48:	3530                	lbu	a2,11(a0)
    2e4a:	bc30                	sb	a2,27(s0)
    2e4c:	b6d9cbd3          	0xb6d9cbd3
    2e50:	c4c8                	sw	a0,12(s1)
    2e52:	b3e9bfa3          	0xb3e9bfa3
    2e56:	caf5                	beqz	a3,2f4a <__clz_tab+0x6>
    2e58:	bbbc                	sb	a5,19(a5)
    2e5a:	b9c9b3af          	0xb9c9b3af
    2e5e:	00a6                	slli	ra,ra,0x9
    2e60:	706d                	c.lui	zero,0xffffb
    2e62:	3675                	jal	2a0e <_printf_i+0x126>
    2e64:	3530                	lbu	a2,11(a0)
    2e66:	bc30                	sb	a2,27(s0)
    2e68:	b6d9cbd3          	0xb6d9cbd3
    2e6c:	b3c8                	sb	a0,5(a5)
    2e6e:	caf5                	beqz	a3,2f62 <__clz_tab+0x1e>
    2e70:	bbbc                	sb	a5,19(a5)
    2e72:	b0a7caaf          	0xb0a7caaf
    2e76:	00dc                	addi	a5,sp,68
    2e78:	0000                	unimp
    2e7a:	43aa                	lw	t2,136(sp)
    2e7c:	1eb8                	addi	a4,sp,888
    2e7e:	4212                	lw	tp,4(sp)
    2e80:	0000                	unimp
    2e82:	42c8                	lw	a0,4(a3)
    2e84:	e93a                	fsw	fa4,144(sp)
    2e86:	ffff                	0xffff
    2e88:	e864                	fsw	fs1,84(s0)
    2e8a:	ffff                	0xffff
    2e8c:	e934                	fsw	fa3,80(a0)
    2e8e:	ffff                	0xffff
    2e90:	e86c                	fsw	fa1,84(s0)
    2e92:	ffff                	0xffff
    2e94:	e934                	fsw	fa3,80(a0)
    2e96:	ffff                	0xffff
    2e98:	e832                	fsw	fa2,16(sp)
    2e9a:	ffff                	0xffff
    2e9c:	e934                	fsw	fa3,80(a0)
    2e9e:	ffff                	0xffff
    2ea0:	e86c                	fsw	fa1,84(s0)
    2ea2:	ffff                	0xffff
    2ea4:	e864                	fsw	fs1,84(s0)
    2ea6:	ffff                	0xffff
    2ea8:	e864                	fsw	fs1,84(s0)
    2eaa:	ffff                	0xffff
    2eac:	e832                	fsw	fa2,16(sp)
    2eae:	ffff                	0xffff
    2eb0:	e86c                	fsw	fa1,84(s0)
    2eb2:	ffff                	0xffff
    2eb4:	e872                	fsw	ft8,16(sp)
    2eb6:	ffff                	0xffff
    2eb8:	e872                	fsw	ft8,16(sp)
    2eba:	ffff                	0xffff
    2ebc:	e872                	fsw	ft8,16(sp)
    2ebe:	ffff                	0xffff
    2ec0:	e832                	fsw	fa2,16(sp)
    2ec2:	ffff                	0xffff
    2ec4:	e824                	fsw	fs1,80(s0)
    2ec6:	ffff                	0xffff
    2ec8:	e824                	fsw	fs1,80(s0)
    2eca:	ffff                	0xffff
    2ecc:	e8f4                	fsw	fa3,84(s1)
    2ece:	ffff                	0xffff
    2ed0:	e9d0                	fsw	fa2,20(a1)
    2ed2:	ffff                	0xffff
    2ed4:	e8f4                	fsw	fa3,84(s1)
    2ed6:	ffff                	0xffff
    2ed8:	e7f2                	fsw	ft8,204(sp)
    2eda:	ffff                	0xffff
    2edc:	e8f4                	fsw	fa3,84(s1)
    2ede:	ffff                	0xffff
    2ee0:	e9d0                	fsw	fa2,20(a1)
    2ee2:	ffff                	0xffff
    2ee4:	e824                	fsw	fs1,80(s0)
    2ee6:	ffff                	0xffff
    2ee8:	e824                	fsw	fs1,80(s0)
    2eea:	ffff                	0xffff
    2eec:	e7f2                	fsw	ft8,204(sp)
    2eee:	ffff                	0xffff
    2ef0:	e9d0                	fsw	fa2,20(a1)
    2ef2:	ffff                	0xffff
    2ef4:	e832                	fsw	fa2,16(sp)
    2ef6:	ffff                	0xffff
    2ef8:	e832                	fsw	fa2,16(sp)
    2efa:	ffff                	0xffff
    2efc:	e832                	fsw	fa2,16(sp)
    2efe:	ffff                	0xffff
    2f00:	e7f2                	fsw	ft8,204(sp)
    2f02:	ffff                	0xffff
    2f04:	eb32                	fsw	fa2,148(sp)
    2f06:	ffff                	0xffff
    2f08:	ea84                	fsw	fs1,16(a3)
    2f0a:	ffff                	0xffff
    2f0c:	ea84                	fsw	fs1,16(a3)
    2f0e:	ffff                	0xffff
    2f10:	ea82                	fsw	ft0,84(sp)
    2f12:	ffff                	0xffff
    2f14:	ea88                	fsw	fa0,16(a3)
    2f16:	ffff                	0xffff
    2f18:	ea88                	fsw	fa0,16(a3)
    2f1a:	ffff                	0xffff
    2f1c:	ea58                	fsw	fa4,20(a2)
    2f1e:	ffff                	0xffff
    2f20:	ea82                	fsw	ft0,84(sp)
    2f22:	ffff                	0xffff
    2f24:	ea88                	fsw	fa0,16(a3)
    2f26:	ffff                	0xffff
    2f28:	ea58                	fsw	fa4,20(a2)
    2f2a:	ffff                	0xffff
    2f2c:	ea88                	fsw	fa0,16(a3)
    2f2e:	ffff                	0xffff
    2f30:	ea82                	fsw	ft0,84(sp)
    2f32:	ffff                	0xffff
    2f34:	eb20                	fsw	fs0,80(a4)
    2f36:	ffff                	0xffff
    2f38:	eb20                	fsw	fs0,80(a4)
    2f3a:	ffff                	0xffff
    2f3c:	eb20                	fsw	fs0,80(a4)
    2f3e:	ffff                	0xffff
    2f40:	ea58                	fsw	fa4,20(a2)
    2f42:	ffff                	0xffff

00002f44 <__clz_tab>:
    2f44:	0100 0202 0303 0303 0404 0404 0404 0404     ................
    2f54:	0505 0505 0505 0505 0505 0505 0505 0505     ................
    2f64:	0606 0606 0606 0606 0606 0606 0606 0606     ................
    2f74:	0606 0606 0606 0606 0606 0606 0606 0606     ................
    2f84:	0707 0707 0707 0707 0707 0707 0707 0707     ................
    2f94:	0707 0707 0707 0707 0707 0707 0707 0707     ................
    2fa4:	0707 0707 0707 0707 0707 0707 0707 0707     ................
    2fb4:	0707 0707 0707 0707 0707 0707 0707 0707     ................
    2fc4:	0808 0808 0808 0808 0808 0808 0808 0808     ................
    2fd4:	0808 0808 0808 0808 0808 0808 0808 0808     ................
    2fe4:	0808 0808 0808 0808 0808 0808 0808 0808     ................
    2ff4:	0808 0808 0808 0808 0808 0808 0808 0808     ................
    3004:	0808 0808 0808 0808 0808 0808 0808 0808     ................
    3014:	0808 0808 0808 0808 0808 0808 0808 0808     ................
    3024:	0808 0808 0808 0808 0808 0808 0808 0808     ................
    3034:	0808 0808 0808 0808 0808 0808 0808 0808     ................

00003044 <__sf_fake_stderr>:
	...

00003064 <__sf_fake_stdin>:
	...

00003084 <__sf_fake_stdout>:
	...
    30a4:	2d23 2b30 0020 0000 6c68 004c 6665 4567     #-0+ ...hlL.efgE
    30b4:	4746 0000 3130 3332 3534 3736 3938 4241     FG..0123456789AB
    30c4:	4443 4645 0000 0000 3130 3332 3534 3736     CDEF....01234567
    30d4:	3938 6261 6463 6665 0000 0000               89abcdef....
